Archive member included       because of file (symbol)

/home/boffo/usr7/rush/game/MB/zmb.a(mb_poly.o)
                              obj/visuals.o (ZOID_UpdatePoly)
/home/boffo/usr7/rush/game/MB/zmb.a(mb_lights.o)
                              obj/init.o (ZOID_SetLightDir)
/home/boffo/usr7/rush/game/MB/zmb.a(mb_main.o)
                              obj/init.o (ZOID_Reset)
/home/boffo/usr7/rush/game/MB/zmb.a(mb_objects.o)
                              /home/boffo/usr7/rush/game/MB/zmb.a(mb_main.o) (InitSortObjects)
/home/boffo/usr7/rush/game/MB/zmb.a(mb_tex.o)
                              /home/boffo/usr7/rush/game/MB/zmb.a(mb_main.o) (ResetTextures)
/home/boffo/usr7/rush/game/MB/zmb.a(mb_state.o)
                              /home/boffo/usr7/rush/game/MB/zmb.a(mb_main.o) (InitWindows)
/home/boffo/usr7/rush/game/MB/zmb.a(mb_blit.o)
                              /home/boffo/usr7/rush/game/MB/zmb.a(mb_main.o) (DrawOverlayBlits)
/home/boffo/usr7/rush/game/MB/zmb.a(mb_struct.o)
                              obj/select.o (ZOID_ChangeTexture)
/home/boffo/usr7/rush/game/MB/zmb.a(mb_model.o)
                              obj/targets.o (MBOX_GetObjectName)
/home/boffo/usr7/rush/game/MB/zmb.a(mb_util.o)
                              obj/targets.o (safe_expf)
/home/boffo/usr7/rush/game/MB/zmb.a(mb_camera.o)
                              /home/boffo/usr7/rush/game/MB/zmb.a(mb_main.o) (MB_UpdateCamera)
/home/boffo/usr7/rush/game/MB/zmb.a(mb_math.o)
                              /home/boffo/usr7/rush/game/MB/zmb.a(mb_main.o) (init_sqrtinvtab)
/home/boffo/usr7/rush/game/MB/zmb.a(mb_simpleclip.o)
                              /home/boffo/usr7/rush/game/MB/zmb.a(mb_poly.o) (doSimpleClipTri)
/home/boffo/usr7/rush/game/MB/zmb.a(mb_simple.o)
                              /home/boffo/usr7/rush/game/MB/zmb.a(mb_poly.o) (CheckFIFO)
/home/boffo/usr7/rush/game/OS/libos.a(phx_shims.o)
                              /home/boffo/usr7/rush/game/OS/phx_root.o (BootUp)
/home/boffo/usr7/rush/game/OS/libos.a(idtc4000.o)
                              /home/boffo/usr7/rush/game/OS/phx_root.o (config_cache)
/home/boffo/usr7/rush/game/OS/libos.a(fexcp.o)
                              /home/boffo/usr7/rush/game/OS/libos.a(phx_shims.o) (init_fpu)
/home/boffo/usr7/rush/game/OS/libos.a(memcpyrxk.o)
                              obj/dis.o (memcpy)
/home/boffo/usr7/rush/game/OS/libos.a(phx_time.o)
                              /home/boffo/usr7/rush/game/OS/libos.a(phx_shims.o) (tq_maint)
/home/boffo/usr7/rush/game/OS/libos.a(dispatch.o)
                              /home/boffo/usr7/rush/game/OS/libos.a(phx_shims.o) (timervec)
/home/boffo/usr7/rush/game/OS/libos.a(selftest.o)
                              /home/boffo/usr7/rush/game/OS/libos.a(phx_shims.o) (SelfTest)
/home/boffo/usr7/rush/game/OS/libos.a(pm.o)
                              /home/boffo/usr7/rush/game/OS/libos.a(selftest.o) (pm_dump)
/home/boffo/usr7/rush/game/OS/libos.a(eedrive.o)
                              /home/boffo/usr7/rush/game/OS/libos.a(phx_shims.o) (eer_action)
/home/boffo/usr7/rush/game/OS/libos.a(cdec_hex.o)
                              /home/boffo/usr7/rush/game/OS/libos.a(eedrive.o) (utl_cdec)
/home/boffo/usr7/rush/game/OS/libos.a(random.o)
                              obj/fmath.o (srand)
/home/boffo/usr7/rush/game/OS/libos.a(stats.o)
                              obj/stats.o (eer_play)
/home/boffo/usr7/rush/game/OS/libos.a(mallocr.o)
                              obj/init.o (prc_extend_bss)
/home/boffo/usr7/rush/game/OS/libos.a(audio.o)
                              obj/sounds.o (aud_put)
/home/boffo/usr7/rush/game/OS/libos.a(phx_coin.o)
                              /home/boffo/usr7/rush/game/OS/libos.a(stats.o) (cn_total_coins)
/home/boffo/usr7/rush/game/OS/libos.a(pots.o)
                              obj/pots.o (pot_raw)
/home/boffo/usr7/rush/game/OS/libos.a(gamedefs.o)
                              /home/boffo/usr7/rush/game/OS/libos.a(stats.o) (t_msg_clear)
/home/boffo/usr7/rush/game/OS/libos.a(qio_rmt.o)
                              /home/boffo/usr7/rush/game/OS/libos.a(selftest.o) (rmt_init)
/home/boffo/usr7/rush/game/OS/libos.a(sst_vid.o)
                              /home/boffo/usr7/rush/game/OS/libos.a(selftest.o) (vid_set_vb)
/home/boffo/usr7/rush/game/OS/libos.a(sst_text.o)
                              /home/boffo/usr7/rush/game/OS/libos.a(sst_vid.o) (txt_vsptr)
/home/boffo/usr7/rush/game/OS/libos.a(sst_an.o)
                              /home/boffo/usr7/rush/game/OS/libos.a(sst_text.o) (an_stamps)
/home/boffo/usr7/rush/game/OS/libos.a(phx_stubs.o)
                              /home/boffo/usr7/rush/game/OS/libos.a(sst_vid.o) (init_3dfx_pci)
/home/boffo/usr7/rush/game/OS/libos.a(ram_test.o)
                              /home/boffo/usr7/rush/game/OS/libos.a(gamedefs.o) (RAM_group)
/home/boffo/usr7/rush/game/OS/libos.a(mem_test.o)
                              /home/boffo/usr7/rush/game/OS/libos.a(ram_test.o) (f_ram_test)
/home/boffo/usr7/rush/game/OS/libos.a(scope.o)
                              /home/boffo/usr7/rush/game/OS/libos.a(gamedefs.o) (scope_loops)
/home/boffo/usr7/rush/game/OS/libos.a(entry.o)
                              /home/boffo/usr7/rush/game/OS/libos.a(ram_test.o) (utl_enter)
/home/boffo/usr7/rush/game/OS/libos.a(menus.o)
                              /home/boffo/usr7/rush/game/OS/libos.a(phx_coin.o) (st_opt_callback)
/home/boffo/usr7/rush/game/OS/libos.a(swt_test.o)
                              /home/boffo/usr7/rush/game/OS/libos.a(selftest.o) (lma_init)
/home/boffo/usr7/rush/game/OS/libos.a(snd_test.o)
                              /home/boffo/usr7/rush/game/OS/libos.a(gamedefs.o) (adj_vol)
/home/boffo/usr7/rush/game/OS/libos.a(qio.o)
                              /home/boffo/usr7/rush/game/OS/libos.a(qio_rmt.o) (qio_getioq)
/home/boffo/usr7/rush/game/OS/libos.a(fsys.o)
                              /home/boffo/usr7/rush/game/OS/libos.a(phx_stubs.o) (fsys_init)
/home/boffo/usr7/rush/game/OS/libos.a(qio_errs.o)
                              /home/boffo/usr7/rush/game/OS/libos.a(fsys.o) (qio_errmsg)
/home/boffo/usr7/rush/game/OS/libos.a(phx_ide.o)
                              /home/boffo/usr7/rush/game/OS/libos.a(fsys.o) (ide_init)
/home/boffo/usr7/rush/game/OS/libos.a(phx_hdshims.o)
                              /home/boffo/usr7/rush/game/MB/zmb.a(mb_util.o) (WrFileSegment)
/home/boffo/usr7/rush/game/OS/libos.a(net_test.o)
                              /home/boffo/usr7/rush/game/OS/libos.a(selftest.o) (net_init)
/home/boffo/usr7/rush/game/OS/libos.a(smc_putstr.o)
                              /home/boffo/usr7/rush/game/OS/libos.a(net_test.o) (smc_putstr)
/home/boffo/usr7/rush/game/OS/libos.a(smc_main.o)
                              /home/boffo/usr7/rush/game/OS/libos.a(net_test.o) (smc_data)
/home/boffo/usr7/rush/game/OS/libos.a(net_link.o)
                              obj/init.o (Net_Initialize)
/home/boffo/usr7/rush/game/OS/libos.a(smc_tx.o)
                              /home/boffo/usr7/rush/game/OS/libos.a(net_link.o) (SMC_Init_Header)
/home/boffo/usr7/rush/game/OS/libos.a(smc_intv.o)
                              /home/boffo/usr7/rush/game/OS/libos.a(smc_main.o) (SMC_Interrupt_Vector0)
/home/boffo/usr7/rush/game/OS/libos.a(smc_dma.o)
                              /home/boffo/usr7/rush/game/OS/libos.a(smc_tx.o) (smc_dma_queue)
/home/boffo/usr7/rush/game/OS/libos.a(wms_ioasic.o)
                              /home/boffo/usr7/rush/game/OS/libos.a(phx_shims.o) (UnLock)
/home/boffo/usr7/rush/game/OS/libos.a(wms_gt64010.o)
                              /home/boffo/usr7/rush/game/OS/libos.a(phx_stubs.o) (get_pci_config_reg)
/home/boffo/usr7/rush/game/OS/libos.a(wms_pciio.o)
                              /home/boffo/usr7/rush/game/OS/libos.a(phx_stubs.o) (get_sst_device_number)
/home/boffo/usr7/rush/game/OS/libos.a(picfuncs.o)
                              obj/stats.o (GetPICDateTime)
/home/boffo/usr7/rush/game/OS/libos.a(sst_date.o)
                              /home/boffo/usr7/rush/game/OS/libos.a(selftest.o) (GUTS_LINK_TIME)
/home/boffo/usr7/rush/game/OS/libos.a(qio_uart.o)
                              /home/boffo/usr7/rush/game/OS/libos.a(qio_rmt.o) (qio_uart_init)
/home/boffo/usr7/rush/game/OS/libos.a(phx_rtc.o)
                              /home/boffo/usr7/rush/game/OS/libos.a(gamedefs.o) (rtc_display)
/home/boffo/usr7/rush/game/OS/libos.a(nsc_pcishim.o)
                              /home/boffo/usr7/rush/game/OS/libos.a(phx_ide.o) (PCI_ReadConfigByte)
/home/boffo/usr7/rush/game/OS/libos.a(smc_rx.o)
                              /home/boffo/usr7/rush/game/OS/libos.a(smc_intv.o) (SMC_RXHndlr)
/usr/local/GUTS/3dfx/glide-rush2.7/libglide.a(gamma.o)
                              /home/boffo/usr7/rush/game/OS/libos.a(sst_vid.o) (AGCGamma)
/usr/local/GUTS/3dfx/glide-rush2.7/libglide.a(gglide.o)
                              /home/boffo/usr7/rush/game/MB/zmb.a(mb_main.o) (_SST)
/usr/local/GUTS/3dfx/glide-rush2.7/libglide.a(glfb.o)
                              /home/boffo/usr7/rush/game/OS/libos.a(sst_vid.o) (grLfbBypassMode)
/usr/local/GUTS/3dfx/glide-rush2.7/libglide.a(gsst.o)
                              /usr/local/GUTS/3dfx/glide-rush2.7/libglide.a(gglide.o) (grSstOpenLastRez)
/usr/local/GUTS/3dfx/glide-rush2.7/libglide.a(gtex.o)
                              /usr/local/GUTS/3dfx/glide-rush2.7/libglide.a(gsst.o) (grTexClampMode)
/usr/local/GUTS/3dfx/glide-rush2.7/libglide.a(gu.o)
                              /home/boffo/usr7/rush/game/MB/zmb.a(mb_poly.o) (guAlphaSource)
/usr/local/GUTS/3dfx/glide-rush2.7/libglide.a(info.o)
                              /usr/local/GUTS/3dfx/glide-rush2.7/libglide.a(gsst.o) (sst1InitGetDeviceInfo)
/usr/local/GUTS/3dfx/glide-rush2.7/libglide.a(misc.o)
                              /usr/local/GUTS/3dfx/glide-rush2.7/libglide.a(gamma.o) (pciSetConfigData)
/usr/local/GUTS/3dfx/glide-rush2.7/libglide.a(sli.o)
                              /usr/local/GUTS/3dfx/glide-rush2.7/libglide.a(gsst.o) (sst1InitSli)
/usr/local/GUTS/3dfx/glide-rush2.7/libglide.a(sst1init.o)
                              /usr/local/GUTS/3dfx/glide-rush2.7/libglide.a(sli.o) (SST1_PCI_INIT_ENABLE)
/usr/local/GUTS/3dfx/glide-rush2.7/libglide.a(trifom.o)
                              /home/boffo/usr7/rush/game/MB/zmb.a(mb_blit.o) (_grDrawTriangleNonAA)
/usr/local/GUTS/3dfx/glide-rush2.7/libglide.a(util.o)
                              /usr/local/GUTS/3dfx/glide-rush2.7/libglide.a(gsst.o) (sst1InitIdle)
/usr/local/GUTS/3dfx/glide-rush2.7/libglide.a(video.o)
                              /usr/local/GUTS/3dfx/glide-rush2.7/libglide.a(info.o) (SST_VREZ_640X480_60)
/usr/local/GUTS/3dfx/glide-rush2.7/libglide.a(dac.o)
                              /usr/local/GUTS/3dfx/glide-rush2.7/libglide.a(sst1init.o) (sst1InitDacDetect)
/usr/local/GUTS/3dfx/glide-rush2.7/libglide.a(gdraw.o)
                              /usr/local/GUTS/3dfx/glide-rush2.7/libglide.a(gglide.o) (_regStruct)
/usr/local/GUTS/3dfx/glide-rush2.7/libglide.a(gerror.o)
                              /usr/local/GUTS/3dfx/glide-rush2.7/libglide.a(gglide.o) (GrErrorCallback)
/usr/local/GUTS/3dfx/glide-rush2.7/libglide.a(gxdraw.o)
                              /usr/local/GUTS/3dfx/glide-rush2.7/libglide.a(gdraw.o) (_trisetup)
/usr/local/gnu/IRIX/mips-97q1/mipsel-elf/lib/libnsprintff.a(new_nvfprintf.o)
                              obj/debug.o (nvfprintf)
/usr/local/gnu/IRIX/mips-97q1/mipsel-elf/lib/libnsprintff.a(nsprintf.o)
                              obj/attract.o (nsprintf)
/usr/local/gnu/IRIX/mips-97q1/mipsel-elf/lib/libmf.a(acos.o)
                              obj/resurrect.o (acosf)
/usr/local/gnu/IRIX/mips-97q1/mipsel-elf/lib/libmf.a(atan2f.o)
                              obj/maxpath.o (atan2f)
/usr/local/gnu/IRIX/mips-97q1/mipsel-elf/lib/libmf.a(atanf.o)
                              /usr/local/gnu/IRIX/mips-97q1/mipsel-elf/lib/libmf.a(atan2f.o) (_satanf)
/usr/local/gnu/IRIX/mips-97q1/mipsel-elf/lib/libmf.a(exp.o)
                              /usr/local/GUTS/3dfx/glide-rush2.7/libglide.a(gu.o) (exp)
/usr/local/gnu/IRIX/mips-97q1/mipsel-elf/lib/libmf.a(expf.o)
                              /home/boffo/usr7/rush/game/MB/zmb.a(mb_util.o) (expf)
/usr/local/gnu/IRIX/mips-97q1/mipsel-elf/lib/libmf.a(fabs.o)
                              /usr/local/gnu/IRIX/mips-97q1/mipsel-elf/lib/libmf.a(acos.o) (fabs)
/usr/local/gnu/IRIX/mips-97q1/mipsel-elf/lib/libmf.a(infinity.o)
                              /usr/local/gnu/IRIX/mips-97q1/mipsel-elf/lib/libmf.a(acos.o) (infinity)
/usr/local/gnu/IRIX/mips-97q1/mipsel-elf/lib/libmf.a(ldexp.o)
                              /usr/local/gnu/IRIX/mips-97q1/mipsel-elf/lib/libmf.a(acos.o) (_ldexp_r)
/usr/local/gnu/IRIX/mips-97q1/mipsel-elf/lib/libmf.a(modf.o)
                              /usr/local/gnu/IRIX/mips-97q1/mipsel-elf/lib/libmf.a(exp.o) (modf)
/usr/local/gnu/IRIX/mips-97q1/mipsel-elf/lib/libmf.a(modff.o)
                              /usr/local/gnu/IRIX/mips-97q1/mipsel-elf/lib/libmf.a(expf.o) (modff)
/usr/local/gnu/IRIX/mips-97q1/mipsel-elf/lib/libmf.a(pow.o)
                              obj/controls.o (pow)
/usr/local/gnu/IRIX/mips-97q1/mipsel-elf/lib/libmf.a(powf.o)
                              /usr/local/gnu/IRIX/mips-97q1/mipsel-elf/lib/libmf.a(pow.o) (_powf_r)
/usr/local/gnu/IRIX/mips-97q1/mipsel-elf/lib/libmf.a(sincosf.o)
                              obj/camera.o (sinf)
/usr/local/gnu/IRIX/mips-97q1/mipsel-elf/lib/libmf.a(sqrt.o)
                              /usr/local/gnu/IRIX/mips-97q1/mipsel-elf/lib/libmf.a(acos.o) (_sqrt_r)
/usr/local/gnu/IRIX/mips-97q1/mipsel-elf/lib/libmf.a(tanf.o)
                              /home/boffo/usr7/rush/game/MB/zmb.a(mb_util.o) (tanf)
/usr/local/gnu/IRIX/mips-97q1/mipsel-elf/lib/libmf.a(floor.o)
                              /usr/local/gnu/IRIX/mips-97q1/mipsel-elf/lib/libmf.a(pow.o) (floor)
/usr/local/gnu/IRIX/mips-97q1/mipsel-elf/lib/libmf.a(fmodf.o)
                              /usr/local/gnu/IRIX/mips-97q1/mipsel-elf/lib/libmf.a(sincosf.o) (_fmodf_r)
/usr/local/gnu/IRIX/mips-97q1/mipsel-elf/lib/libmf.a(frexp.o)
                              /usr/local/gnu/IRIX/mips-97q1/mipsel-elf/lib/libmf.a(sqrt.o) (_frexp_r)
/usr/local/gnu/IRIX/mips-97q1/mipsel-elf/lib/libmf.a(log.o)
                              /usr/local/gnu/IRIX/mips-97q1/mipsel-elf/lib/libmf.a(pow.o) (_log_r)
/usr/local/gnu/IRIX/mips-97q1/mipsel-elf/lib/libcf.a(abs.o)
                              /usr/local/gnu/IRIX/mips-97q1/mipsel-elf/lib/libmf.a(ldexp.o) (abs)
/usr/local/gnu/IRIX/mips-97q1/mipsel-elf/lib/libcf.a(atoi.o)
                              /home/boffo/usr7/rush/game/OS/libos.a(smc_main.o) (atoi)
/usr/local/gnu/IRIX/mips-97q1/mipsel-elf/lib/libcf.a(bsearch.o)
                              obj/world.o (bsearch)
/usr/local/gnu/IRIX/mips-97q1/mipsel-elf/lib/libcf.a(callocr.o)
                              /home/boffo/usr7/rush/game/OS/libos.a(qio.o) (_calloc_r)
/usr/local/gnu/IRIX/mips-97q1/mipsel-elf/lib/libcf.a(ctype_.o)
                              obj/error.o (_ctype_)
/usr/local/gnu/IRIX/mips-97q1/mipsel-elf/lib/libcf.a(cvt.o)
                              /usr/local/gnu/IRIX/mips-97q1/mipsel-elf/lib/libnsprintff.a(new_nvfprintf.o) (_llicvt)
/usr/local/gnu/IRIX/mips-97q1/mipsel-elf/lib/libcf.a(ecvtbuf.o)
                              /usr/local/gnu/IRIX/mips-97q1/mipsel-elf/lib/libnsprintff.a(new_nvfprintf.o) (_dcvt)
/usr/local/gnu/IRIX/mips-97q1/mipsel-elf/lib/libcf.a(errno.o)
                              /home/boffo/usr7/rush/game/OS/libos.a(qio.o) (__errno)
/usr/local/gnu/IRIX/mips-97q1/mipsel-elf/lib/libcf.a(fopen.o)
                              /home/boffo/usr7/rush/game/MB/zmb.a(mb_util.o) (fopen)
/usr/local/gnu/IRIX/mips-97q1/mipsel-elf/lib/libcf.a(fseek.o)
                              /usr/local/gnu/IRIX/mips-97q1/mipsel-elf/lib/libcf.a(fopen.o) (fseek)
/usr/local/gnu/IRIX/mips-97q1/mipsel-elf/lib/libcf.a(fstatr.o)
                              /usr/local/gnu/IRIX/mips-97q1/mipsel-elf/lib/libcf.a(fseek.o) (_fstat_r)
/usr/local/gnu/IRIX/mips-97q1/mipsel-elf/lib/libcf.a(fwrite.o)
                              /home/boffo/usr7/rush/game/MB/zmb.a(mb_util.o) (fwrite)
/usr/local/gnu/IRIX/mips-97q1/mipsel-elf/lib/libcf.a(makebuf.o)
                              /usr/local/gnu/IRIX/mips-97q1/mipsel-elf/lib/libcf.a(fseek.o) (__smakebuf)
/usr/local/gnu/IRIX/mips-97q1/mipsel-elf/lib/libcf.a(memcmp.o)
                              obj/tourney.o (memcmp)
/usr/local/gnu/IRIX/mips-97q1/mipsel-elf/lib/libcf.a(memmove.o)
                              obj/hiscore.o (memmove)
/usr/local/gnu/IRIX/mips-97q1/mipsel-elf/lib/libcf.a(mprec.o)
                              /usr/local/gnu/IRIX/mips-97q1/mipsel-elf/lib/libcf.a(ecvtbuf.o) (_mprec_log10)
/usr/local/gnu/IRIX/mips-97q1/mipsel-elf/lib/libcf.a(printf.o)
                              /usr/local/GUTS/3dfx/glide-rush2.7/libglide.a(sli.o) (printf)
/usr/local/gnu/IRIX/mips-97q1/mipsel-elf/lib/libcf.a(puts.o)
                              /usr/local/GUTS/3dfx/glide-rush2.7/libglide.a(gerror.o) (puts)
/usr/local/gnu/IRIX/mips-97q1/mipsel-elf/lib/libcf.a(qsort.o)
                              /home/boffo/usr7/rush/game/MB/zmb.a(mb_objects.o) (qsort)
/usr/local/gnu/IRIX/mips-97q1/mipsel-elf/lib/libcf.a(refill.o)
                              /usr/local/gnu/IRIX/mips-97q1/mipsel-elf/lib/libcf.a(fseek.o) (__srefill)
/usr/local/gnu/IRIX/mips-97q1/mipsel-elf/lib/libcf.a(stdio.o)
                              /usr/local/gnu/IRIX/mips-97q1/mipsel-elf/lib/libcf.a(fopen.o) (__sread)
/usr/local/gnu/IRIX/mips-97q1/mipsel-elf/lib/libcf.a(strcat.o)
                              /home/boffo/usr7/rush/game/OS/libos.a(selftest.o) (strcat)
/usr/local/gnu/IRIX/mips-97q1/mipsel-elf/lib/libcf.a(strchr.o)
                              obj/hiscore.o (strchr)
/usr/local/gnu/IRIX/mips-97q1/mipsel-elf/lib/libcf.a(strcmp.o)
                              obj/world.o (strcmp)
/usr/local/gnu/IRIX/mips-97q1/mipsel-elf/lib/libcf.a(strcpy.o)
                              obj/attract.o (strcpy)
/usr/local/gnu/IRIX/mips-97q1/mipsel-elf/lib/libcf.a(strlen.o)
                              obj/hiscore.o (strlen)
/usr/local/gnu/IRIX/mips-97q1/mipsel-elf/lib/libcf.a(strncat.o)
                              /home/boffo/usr7/rush/game/OS/libos.a(selftest.o) (strncat)
/usr/local/gnu/IRIX/mips-97q1/mipsel-elf/lib/libcf.a(strncmp.o)
                              obj/hiscore.o (strncmp)
/usr/local/gnu/IRIX/mips-97q1/mipsel-elf/lib/libcf.a(strncpy.o)
                              obj/hiscore.o (strncpy)
/usr/local/gnu/IRIX/mips-97q1/mipsel-elf/lib/libcf.a(strstr.o)
                              /home/boffo/usr7/rush/game/MB/zmb.a(mb_model.o) (strstr)
/usr/local/gnu/IRIX/mips-97q1/mipsel-elf/lib/libcf.a(strtol.o)
                              /home/boffo/usr7/rush/game/OS/libos.a(qio_rmt.o) (strtol)
/usr/local/gnu/IRIX/mips-97q1/mipsel-elf/lib/libcf.a(strtoul.o)
                              /usr/local/gnu/IRIX/mips-97q1/mipsel-elf/lib/libcf.a(strtol.o) (_strtoul_r)
/usr/local/gnu/IRIX/mips-97q1/mipsel-elf/lib/libcf.a(vfprintf.o)
                              /usr/local/gnu/IRIX/mips-97q1/mipsel-elf/lib/libcf.a(printf.o) (vfprintf)
/usr/local/gnu/IRIX/mips-97q1/mipsel-elf/lib/libcf.a(dtoa.o)
                              /usr/local/gnu/IRIX/mips-97q1/mipsel-elf/lib/libcf.a(ecvtbuf.o) (_dtoa_r)
/usr/local/gnu/IRIX/mips-97q1/mipsel-elf/lib/libcf.a(fflush.o)
                              /usr/local/gnu/IRIX/mips-97q1/mipsel-elf/lib/libcf.a(fseek.o) (fflush)
/usr/local/gnu/IRIX/mips-97q1/mipsel-elf/lib/libcf.a(filer.o)
                              /usr/local/gnu/IRIX/mips-97q1/mipsel-elf/lib/libcf.a(fopen.o) (_open_r)
/usr/local/gnu/IRIX/mips-97q1/mipsel-elf/lib/libcf.a(findfp.o)
                              /usr/local/gnu/IRIX/mips-97q1/mipsel-elf/lib/libcf.a(fopen.o) (__sfp)
/usr/local/gnu/IRIX/mips-97q1/mipsel-elf/lib/libcf.a(flags.o)
                              /usr/local/gnu/IRIX/mips-97q1/mipsel-elf/lib/libcf.a(fopen.o) (__sflags)
/usr/local/gnu/IRIX/mips-97q1/mipsel-elf/lib/libcf.a(fputc.o)
                              /usr/local/gnu/IRIX/mips-97q1/mipsel-elf/lib/libcf.a(vfprintf.o) (fputc)
/usr/local/gnu/IRIX/mips-97q1/mipsel-elf/lib/libcf.a(fputs.o)
                              /usr/local/gnu/IRIX/mips-97q1/mipsel-elf/lib/libcf.a(vfprintf.o) (fputs)
/usr/local/gnu/IRIX/mips-97q1/mipsel-elf/lib/libcf.a(fvwrite.o)
                              /usr/local/gnu/IRIX/mips-97q1/mipsel-elf/lib/libcf.a(fwrite.o) (__sfvwrite)
/usr/local/gnu/IRIX/mips-97q1/mipsel-elf/lib/libcf.a(fwalk.o)
                              /usr/local/gnu/IRIX/mips-97q1/mipsel-elf/lib/libcf.a(refill.o) (_fwalk)
/usr/local/gnu/IRIX/mips-97q1/mipsel-elf/lib/libcf.a(memchr.o)
                              /usr/local/gnu/IRIX/mips-97q1/mipsel-elf/lib/libcf.a(fvwrite.o) (memchr)
/usr/local/gnu/IRIX/mips-97q1/mipsel-elf/lib/libcf.a(wbuf.o)
                              /usr/local/gnu/IRIX/mips-97q1/mipsel-elf/lib/libcf.a(fputc.o) (__swbuf)
/usr/local/gnu/IRIX/mips-97q1/mipsel-elf/lib/libcf.a(wsetup.o)
                              /usr/local/gnu/IRIX/mips-97q1/mipsel-elf/lib/libcf.a(fvwrite.o) (__swsetup)
/usr/local/gnu/IRIX/mips-97q1/mipsel-elf/lib/libcf.a(ddtoa.o)
                              /usr/local/gnu/IRIX/mips-97q1/mipsel-elf/lib/libcf.a(dtoa.o) (_ddtoa_r)
/usr/local/gnu/IRIX/mips-97q1/mipsel-elf/lib/libgcc.a(_divdi3.o)
                              /usr/local/gnu/IRIX/mips-97q1/mipsel-elf/lib/libcf.a(cvt.o) (__divdi3)
/usr/local/gnu/IRIX/mips-97q1/mipsel-elf/lib/libgcc.a(_moddi3.o)
                              /usr/local/gnu/IRIX/mips-97q1/mipsel-elf/lib/libcf.a(cvt.o) (__moddi3)
/usr/local/gnu/IRIX/mips-97q1/mipsel-elf/lib/libgcc.a(_udivdi3.o)
                              /usr/local/gnu/IRIX/mips-97q1/mipsel-elf/lib/libcf.a(cvt.o) (__udivdi3)
/usr/local/gnu/IRIX/mips-97q1/mipsel-elf/lib/libgcc.a(_umoddi3.o)
                              /usr/local/gnu/IRIX/mips-97q1/mipsel-elf/lib/libcf.a(cvt.o) (__umoddi3)

Allocating common symbols
Common symbol       size              file

lock_MEG6_hole      0x4               /home/boffo/usr7/rush/game/MB/zmb.a(mb_model.o)
solo_flag           0x1               obj/dis.o
negotiate_track     0x1               obj/select.o
nettime_synced      0x4               obj/dis.o
_paramRegs          0x3c              /usr/local/GUTS/3dfx/glide-rush2.7/libglide.a(gdraw.o)
DBG_bar_scale       0x4               obj/debug.o
gFinishObject       0x28              obj/targets.o
wheel               0x2               obj/model.o
time_plgame         0x8               /home/boffo/usr7/rush/game/OS/libos.a(stats.o)
track_opt           0x4               obj/globals.o
dbgRPMval           0x4               obj/carsnd.o
angi                0x4               obj/game.o
__gdraw_dyBC        0x4               /usr/local/GUTS/3dfx/glide-rush2.7/libglide.a(gdraw.o)
negotiate_twant     0x20              obj/select.o
old_drone_scale     0x20              obj/drones.o
tourney_setup       0x1               obj/globals.o
last_swforce        0x2               obj/fswheel.o
display_pos_data    0x2               obj/menus.o
tmp                 0x2               obj/model.o
rcvtime             0x20              obj/gamenet.o
lastbrake           0x20              obj/maxpath.o
GrErrorCallback     0x4               /usr/local/GUTS/3dfx/glide-rush2.7/libglide.a(gerror.o)
carz                0x4e0             obj/dis.o
TIME                0x4               obj/timer.o
damage_flag         0x1               obj/globals.o
gContinuedGame      0x1               obj/attract.o
sst_memfifo_min     0x4               /usr/local/GUTS/3dfx/glide-rush2.7/libglide.a(misc.o)
stack_watermark     0x4               /home/boffo/usr7/rush/game/OS/libos.a(phx_shims.o)
cheats              0x1               obj/globals.o
path                0x4               obj/stree.o
drop_out_time       0x4               obj/select.o
ResetLine           0x2               obj/globals.o
gWheelVal           0x4               obj/globals.o
first_place_time    0x4               obj/checkpoint.o
dacStructBase       0x4               /usr/local/GUTS/3dfx/glide-rush2.7/libglide.a(sst1init.o)
LocalAmbient        0xc               /home/boffo/usr7/rush/game/MB/zmb.a(mb_state.o)
num_path_points     0x2               obj/checkpoint.o
edges               0x4               obj/globals.o
HAS_SHIFTER         0x1               obj/globals.o
explosion_state     0x1               obj/attract.o
gSWdamp             0x2               obj/model.o
old_rear_x          0x4               obj/camera.o
gSWpos              0x2               obj/globals.o
_GLIDE_STATE        0x4               /usr/local/GUTS/3dfx/glide-rush2.7/libglide.a(gglide.o)
metric              0x1               obj/globals.o
rawswvel            0x2               obj/fswheel.o
trailing_dedges     0x4               obj/globals.o
ObjHead             0x8               /home/boffo/usr7/rush/game/MB/zmb.a(mb_objects.o)
gCameraTransition   0x1               obj/select.o
view_3_time         0x4               obj/camera.o
BlitInstanceList    0x4fb0            /home/boffo/usr7/rush/game/MB/zmb.a(mb_blit.o)
bitshd              0x2               /home/boffo/usr7/rush/game/OS/libos.a(phx_shims.o)
galileo_dma_act_q_elt
                    0x10              /home/boffo/usr7/rush/game/OS/libos.a(smc_dma.o)
last_checkpoint_time
                    0x4               obj/checkpoint.o
surf                0x4               obj/stree.o
last_countdown_time
                    0x4               obj/select.o
out_trc             0x20              /home/boffo/usr7/rush/game/OS/libos.a(audio.o)
dm1intp             0x4               /home/boffo/usr7/rush/game/OS/libos.a(dispatch.o)
gPlayingFree        0x1               obj/attract.o
rpm_fix             0x4               obj/carsnd.o
gCamFrames          0x2               obj/select.o
_lastAddress        0x4               /usr/local/GUTS/3dfx/glide-rush2.7/libglide.a(gglide.o)
wrong_way           0x1               obj/hud.o
mBlitIndex          0x2               obj/hud.o
playpos             0x2               obj/fswheel.o
trackno             0x2               obj/globals.o
TrackCPs            0x2800            obj/checkpoint.o
has_shifter         0x1               obj/game.o
gStrayAngle         0x4               obj/hud.o
Xscale              0x18              obj/debug.o
ATime               0x4               obj/anim.o
DBG_mbscale         0x4               obj/debug.o
gGameExecTime       0x4               obj/init.o
cur_acc             0xc               obj/camera.o
negotiate_tphase    0x20              obj/select.o
dbgTORval           0x4               obj/carsnd.o
swvel               0x2               obj/fswheel.o
p2uv                0x24              obj/stree.o
CPU_SPEED           0x4               /home/boffo/usr7/rush/game/OS/libos.a(sst_vid.o)
p1v                 0xc               obj/stree.o
game_opt            0x4               obj/globals.o
skips               0x20              obj/reckon.o
ForceInit           0x4               /home/boffo/usr7/rush/game/OS/libos.a(swt_test.o)
db_state            0x1c              /home/boffo/usr7/rush/game/OS/libos.a(swt_test.o)
DBG_offcnt8         0x4               obj/debug.o
xSaveRoadInfo       0x4               obj/road.o
trying_mcast_channel
                    0x4               obj/dis.o
path_index          0xbb8             obj/checkpoint.o
mboxanimfuncs       0x4               /home/boffo/usr7/rush/game/MB/zmb.a(mb_model.o)
terpuv              0x24              obj/stree.o
terpv               0xc               obj/stree.o
errno               0x4               /usr/local/gnu/IRIX/mips-97q1/mipsel-elf/lib/libcf.a(errno.o)
gear                0x2               obj/model.o
gFlyUvs             0x24              obj/debug.o
gTrackLocked        0x1               obj/dis.o
drone_diff_save     0x1               obj/globals.o
ftemp               0xc               obj/stree.o
NumObjects          0x4               /home/boffo/usr7/rush/game/MB/zmb.a(mb_objects.o)
m_edges             0x4               obj/globals.o
mpath_save          0x4               obj/maxpath.o
dbgTORbias          0x4               obj/carsnd.o
process_action_q_vec
                    0x4               /home/boffo/usr7/rush/game/OS/libos.a(phx_shims.o)
texdef_ptrs         0x1f8             /home/boffo/usr7/rush/game/MB/zmb.a(mb_model.o)
ftempa              0xc               obj/stree.o
levels              0x4               obj/globals.o
_paramRegsPtr       0x4               /usr/local/GUTS/3dfx/glide-rush2.7/libglide.a(gdraw.o)
lock_pal_base       0x4               /home/boffo/usr7/rush/game/MB/zmb.a(mb_model.o)
rear_y              0x4               obj/camera.o
LightUpdate         0x10              /home/boffo/usr7/rush/game/MB/zmb.a(mb_lights.o)
smc_dma_tx_queue    0x4               /home/boffo/usr7/rush/game/OS/libos.a(smc_dma.o)
gPal                0x4               obj/debug.o
cam_yaw_cos         0x4               /home/boffo/usr7/rush/game/MB/zmb.a(mb_objects.o)
uartintp            0x4               /home/boffo/usr7/rush/game/OS/libos.a(dispatch.o)
glob_spin           0x4               /home/boffo/usr7/rush/game/MB/zmb.a(mb_objects.o)
BlitPtrs            0x4b0             obj/blit.o
STAT_games          0x4               obj/stats.o
path_loop           0x2               obj/stree.o
vid_str             0x4               /home/boffo/usr7/rush/game/OS/libos.a(sst_text.o)
cam_yaw_sin         0x4               /home/boffo/usr7/rush/game/MB/zmb.a(mb_objects.o)
gFeedbackLevel      0x1               obj/dis.o
gCheckPtTimeout2    0x4               obj/hud.o
__gdraw_ooarea      0x4               /usr/local/GUTS/3dfx/glide-rush2.7/libglide.a(gdraw.o)
DBG_num_frame_blits
                    0x4               obj/debug.o
ms4vec              0x4               /home/boffo/usr7/rush/game/OS/libos.a(phx_shims.o)
gCountDown          0x4               obj/dis.o
grSstOpenLastRefresh
                    0x4               /usr/local/GUTS/3dfx/glide-rush2.7/libglide.a(gsst.o)
STAT_t2games        0x4               obj/stats.o
gTourney            0x14              obj/tourney.o
tm3intp             0x4               /home/boffo/usr7/rush/game/OS/libos.a(dispatch.o)
iniDac              0x4               /usr/local/GUTS/3dfx/glide-rush2.7/libglide.a(sst1init.o)
sched_to_use        0x2               obj/mdrive.o
vb_count            0x4               /home/boffo/usr7/rush/game/OS/libos.a(sst_vid.o)
mcam                0xc               obj/camera.o
cur_weight_drone    0x2               obj/maxpath.o
mem_lock_count      0x4               obj/mem.o
dbg_tclr            0x4               /home/boffo/usr7/rush/game/OS/libos.a(sst_text.o)
cp_edit             0x2               obj/menus.o
last_irqtime        0x4               obj/timint.o
gObjList            0x89c             obj/dis.o
_SST                0x4               /usr/local/GUTS/3dfx/glide-rush2.7/libglide.a(gglide.o)
gUpSeconds          0x4               obj/globals.o
lock_tex_base       0x4               /home/boffo/usr7/rush/game/MB/zmb.a(mb_model.o)
m_levels            0x4               obj/globals.o
recenter_flag       0x2               obj/fswheel.o
re_negotiate        0x1               obj/select.o
Worlddlidx          0x2               obj/world.o
misc_moobs          0x1e0             obj/moobs.o
gFscale             0x2               obj/fswheel.o
smoke_intensity     0x80              obj/carsnd.o
smc_dma_queue       0x4               /home/boffo/usr7/rush/game/OS/libos.a(smc_dma.o)
__gdraw_area        0x4               /usr/local/GUTS/3dfx/glide-rush2.7/libglide.a(gdraw.o)
last_mast_time      0x4               obj/init.o
gFinishX            0x2               obj/hud.o
gSecPerCount        0x4               obj/globals.o
mast_period         0x4               obj/init.o
gGasRaw             0x2               obj/globals.o
pbase               0x4               /home/boffo/usr7/rush/game/OS/libos.a(phx_shims.o)
xxxSurfDist         0x4               obj/stree.o
radio_station       0x1               obj/game.o
model_addrs         0x48              /home/boffo/usr7/rush/game/MB/zmb.a(mb_model.o)
attract_effects_save
                    0x1               obj/globals.o
demo_checkpoint     0x2               obj/mdrive.o
lock_objdef_count   0x4               /home/boffo/usr7/rush/game/MB/zmb.a(mb_model.o)
__gdraw_dyAB        0x4               /usr/local/GUTS/3dfx/glide-rush2.7/libglide.a(gdraw.o)
attract_effects     0x1               obj/globals.o
swpos               0x2               /home/boffo/usr7/rush/game/OS/libos.a(swt_test.o)
gGasVal             0x4               obj/globals.o
menu_depth          0x2               obj/menus.o
join_during_load    0x1               obj/dnl.o
numer               0x1               obj/money.o
dbg_stamp           0x4               /home/boffo/usr7/rush/game/OS/libos.a(sst_text.o)
running_standalone  0x4               obj/error.o
__gu_prim_current_vtx
                    0x4               /usr/local/GUTS/3dfx/glide-rush2.7/libglide.a(gu.o)
marker_b            0x2               obj/maxpath.o
dbgRPMbias          0x4               obj/carsnd.o
cpu_ticks_usec      0x4               /home/boffo/usr7/rush/game/OS/libos.a(sst_vid.o)
mb_global           0x390             /home/boffo/usr7/rush/game/MB/zmb.a(mb_objects.o)
interrupt_reent     0x4               /home/boffo/usr7/rush/game/OS/libos.a(mallocr.o)
disp_sw_bar         0x2               obj/menus.o
post_obj_index      0x28              obj/maxpath.o
debug_sqrt          0x4               obj/d3math.o
smc_dma_free        0x4               /home/boffo/usr7/rush/game/OS/libos.a(smc_dma.o)
gFreeGame           0x1               obj/attract.o
credits             0x2               obj/money.o
irq_action          0x10              /home/boffo/usr7/rush/game/OS/libos.a(phx_shims.o)
DBG_count_roll      0x4               obj/debug.o
check_limit_time    0x4               obj/pots.o
gSWfrict            0x2               obj/model.o
gWheelRaw           0x2               obj/globals.o
vid_refresh         0x4               /home/boffo/usr7/rush/game/OS/libos.a(sst_text.o)
temp_sound          0x2               obj/carsnd.o
last_save_dir       0x60              obj/maxpath.o
GT64010rev          0x4               /home/boffo/usr7/rush/game/OS/libos.a(phx_stubs.o)
post_object         0x20              obj/checkpoint.o
car_bump            0x78              obj/carsnd.o
AnimDebugObj        0x4               obj/anim.o
iniStack            0x40              /usr/local/GUTS/3dfx/glide-rush2.7/libglide.a(sst1init.o)
WorldData           0x20000           obj/world.o
iniMemClk           0x4               /usr/local/GUTS/3dfx/glide-rush2.7/libglide.a(sst1init.o)
objanim_ptrs        0x90              /home/boffo/usr7/rush/game/MB/zmb.a(mb_model.o)
global_handle       0x1               obj/moobs.o
gClutchVal          0x4               obj/globals.o
this_node           0x2               obj/globals.o
number_checkpoints  0x4               obj/checkpoint.o
ast_action          0x10              /home/boffo/usr7/rush/game/OS/libos.a(phx_shims.o)
continue_carry      0x1               obj/hiscore.o
xxxNumSurfs         0x2               obj/stree.o
misc_sound          0x28              obj/moobs.o
dbswitch            0x4               /home/boffo/usr7/rush/game/OS/libos.a(swt_test.o)
gNetDesc            0x4               obj/dis.o
last_swpos          0x2               /home/boffo/usr7/rush/game/OS/libos.a(swt_test.o)
_guts_inest         0x4               /home/boffo/usr7/rush/game/OS/libos.a(phx_shims.o)
total_time_box_time
                    0x4               obj/checkpoint.o
guts_opt            0x4               obj/globals.o
LocalLightCnt       0x4               /home/boffo/usr7/rush/game/MB/zmb.a(mb_state.o)
language            0x1               obj/globals.o
gInThisGame         0x4               obj/dis.o
close_chkpnt        0x2               obj/checkpoint.o
ethintp             0x4               /home/boffo/usr7/rush/game/OS/libos.a(dispatch.o)
sw_state            0x1c              /home/boffo/usr7/rush/game/OS/libos.a(swt_test.o)
cancel_mpath_lap    0x1               obj/checkpoint.o
using_mcast_channel
                    0x4               obj/dis.o
grSstOpenLastRez    0x4               /usr/local/GUTS/3dfx/glide-rush2.7/libglide.a(gsst.o)
rdnoise_state       0x8               obj/carsnd.o
crash_delay         0x2               obj/game.o
lock_MEG2_hole      0x4               /home/boffo/usr7/rush/game/MB/zmb.a(mb_model.o)
MEG4_hole           0x4               /home/boffo/usr7/rush/game/MB/zmb.a(mb_model.o)
menu_txt_index      0x14              obj/menus.o
tottorque           0x2               obj/fswheel.o
pciErrorString      0x4               /usr/local/GUTS/3dfx/glide-rush2.7/libglide.a(misc.o)
change_vector       0x8               obj/maxpath.o
temp                0xc               obj/stree.o
gTransitionFunc     0x4               obj/dnl.o
m_dedges            0x4               obj/globals.o
set_ipl_vec         0x4               /home/boffo/usr7/rush/game/OS/libos.a(dispatch.o)
continue_opts       0x1               obj/globals.o
drone_done_count    0x2               obj/maxpath.o
nmboxanimfuncs      0x4               /home/boffo/usr7/rush/game/MB/zmb.a(mb_model.o)
track_data          0x240             obj/checkpoint.o
model               0x7d10            obj/globals.o
demo_game           0x2               obj/globals.o
hwconfig            0x4c              /home/boffo/usr7/rush/game/OS/libos.a(sst_vid.o)
man_gear            0x1               obj/pots.o
amp                 0x2               obj/model.o
game_volume         0x1               obj/game.o
path_dist           0xbb8             obj/checkpoint.o
rear_view_time      0x4               obj/camera.o
num_misc_sounds     0x2               obj/moobs.o
tuvs                0x24              obj/road.o
CP_Track            0x40              obj/checkpoint.o
gNextCam            0x2               obj/select.o
PolyTypeZModInit    0x6               /home/boffo/usr7/rush/game/MB/zmb.a(mb_poly.o)
p3uv                0x24              obj/stree.o
gNetTimeToSec       0x4               obj/globals.o
sounds_are_present  0x4               obj/sounds.o
swforce             0x2               obj/globals.o
denom               0x1               obj/money.o
gLastFunc           0x2               obj/attract.o
player_update_timer
                    0x4               obj/moobs.o
quat_index          0x2               obj/mdrive.o
scrch_state         0x100             obj/carsnd.o
cagevec             0x4               /home/boffo/usr7/rush/game/OS/libos.a(dispatch.o)
explosion_time      0x4               obj/attract.o
scaletorque         0x2               obj/fswheel.o
dm3intp             0x4               /home/boffo/usr7/rush/game/OS/libos.a(dispatch.o)
eye_vec             0xc               /home/boffo/usr7/rush/game/MB/zmb.a(mb_objects.o)
net_mem_start       0x4               obj/init.o
gBrakeInt           0x2               obj/globals.o
dbgRPMscale         0x4               obj/carsnd.o
cur_misc_moobs      0x2               obj/moobs.o
mem_pool_start      0x4               obj/init.o
MboxStats           0x34              /home/boffo/usr7/rush/game/MB/zmb.a(mb_main.o)
cur_menu            0x4               obj/menus.o
ZCLOCK              0x4               obj/timer.o
pot_tab             0x30              obj/pots.o
trkpath             0x50              obj/dnl.o
gCurGameTime        0x4               obj/init.o
_SSTs               0x31150           /usr/local/GUTS/3dfx/glide-rush2.7/libglide.a(gglide.o)
track_len_save      0x8               obj/globals.o
gSusAvg             0x4               obj/camera.o
p2v                 0xc               obj/stree.o
mpctl               0x180             obj/maxpath.o
vlist               0x4               obj/stree.o
upsec_inc           0x4               obj/timint.o
_regStruct          0x3c              /usr/local/GUTS/3dfx/glide-rush2.7/libglide.a(gdraw.o)
gJoinInPossible     0x1               obj/dis.o
countdown_state     0x1               obj/select.o
DBG_msbtime         0x4               obj/debug.o
last_sw             0x4               /home/boffo/usr7/rush/game/OS/libos.a(swt_test.o)
weight_table        0x540             obj/maxpath.o
ZoidCamInfo         0xd0              /home/boffo/usr7/rush/game/MB/zmb.a(mb_camera.o)
gClutchRaw          0x2               obj/globals.o
gn_state            0x1a0             obj/gamenet.o
cur_point_set       0x2               obj/maxpath.o
index1              0x4               obj/checkpoint.o
gPacketsSent        0x4               obj/dis.o
model_tex_addrs     0x48              /home/boffo/usr7/rush/game/MB/zmb.a(mb_model.o)
cur_selection       0x2               obj/menus.o
cur_hint_type       0x4               obj/maxpath.o
gCarModelNums       0x18              obj/visuals.o
win_opts            0x1               obj/globals.o
time_to_be_given    0x4               obj/checkpoint.o
BODYRWV             0xc               obj/road.o
dbgFogMinDist       0x20              obj/debug.o
SqrtCalls           0x4               obj/fmath.o
smc_dma_req         0x4               /home/boffo/usr7/rush/game/OS/libos.a(smc_dma.o)
STAT_t3games        0x4               obj/stats.o
DBG_fltinfo         0xc8              obj/debug.o
dbgTORscale         0x4               obj/carsnd.o
gPacketsRcvd        0x4               obj/dis.o
WHEEL_MIN           0x2               obj/pots.o
carsetup_flag       0x8               obj/game.o
mpheader_tab        0x20              obj/maxpath.o
num_drone_moobs     0x2               obj/moobs.o
target_drone        0x2               obj/globals.o
lastSend            0x20              obj/reckon.o
tpllvec             0x4               /home/boffo/usr7/rush/game/OS/libos.a(sst_vid.o)
mpFlyDist           0x4               obj/maxpath.o
demo_station        0x1               obj/game.o
dbgFogMaxLevel      0x20              obj/debug.o
game_block          0x4               obj/init.o
gComAddress         0x6               obj/dis.o
mpstrbuf            0x80              obj/maxpath.o
scrape_state        0x2               obj/carsnd.o
stat_str            0x50              obj/stats.o
time_residue        0x10              /home/boffo/usr7/rush/game/OS/libos.a(stats.o)
closest_cp_index    0x2c              obj/checkpoint.o
mcast_channel_time  0x20              obj/dis.o
next_radio_station  0x1               obj/game.o
NumPolyInsts        0x4               /home/boffo/usr7/rush/game/MB/zmb.a(mb_poly.o)
num_humans          0x2               obj/globals.o
ignition            0x2               obj/model.o
gThisCar            0x2               obj/select.o
gotvb               0x4               obj/init.o
SimpleXVerts        0x20000           /home/boffo/usr7/rush/game/MB/zmb.a(mb_simple.o)
vid_stamp           0x4               /home/boffo/usr7/rush/game/OS/libos.a(sst_text.o)
gUseCatchup         0x1               obj/dis.o
sound_time          0x2               obj/moobs.o
action_reent        0x4               /home/boffo/usr7/rush/game/OS/libos.a(mallocr.o)
gLine               0x4               obj/debug.o
gFlyPos             0xc               obj/debug.o
ClearScreen         0x4               obj/strings.o
view3_switch        0x4               obj/camera.o
WHEEL_MAX           0x2               obj/pots.o
marker_point_set    0x2               obj/maxpath.o
gSWtorque           0x2               obj/model.o
gEnteringName       0x1               obj/hiscore.o
cur_mpath_point_s16
                    0x2               obj/maxpath.o
dma_stats           0x88              /home/boffo/usr7/rush/game/OS/libos.a(smc_dma.o)
dr_camuvs           0x24              obj/mdrive.o
gIgnoreScore        0x1               obj/dis.o
sort_objects        0xfa00            /home/boffo/usr7/rush/game/MB/zmb.a(mb_objects.o)
_regStructByHints   0x780             /usr/local/GUTS/3dfx/glide-rush2.7/libglide.a(gdraw.o)
start_time          0x4               obj/select.o
gLastModelLoaded    0x4               obj/dnl.o
gFlyTime            0x4               obj/debug.o
boardsInSystem      0x4               /usr/local/GUTS/3dfx/glide-rush2.7/libglide.a(sst1init.o)
old_game_volume     0x1               obj/game.o
xMgUvObj            0x4               obj/debug.o
xMgUv               0x24              obj/debug.o
dm0intp             0x4               /home/boffo/usr7/rush/game/OS/libos.a(dispatch.o)
view                0x1               obj/camera.o
sst1InitSliEnabled  0x4               /usr/local/GUTS/3dfx/glide-rush2.7/libglide.a(sst1init.o)
Current             0x4               obj/world.o
gTourneyTrack       0x1               obj/dis.o
flash_music_time    0x4               obj/game.o
in_game_mode        0x1               obj/game.o
last_dlevels        0x4               obj/pots.o
gSWforce            0x2               obj/globals.o
clear_pos_data      0x2               obj/menus.o
last_levels         0x4               obj/pots.o
loop_stamp          0x4               obj/maxpath.o
negotiate_race      0x1               obj/select.o
aa_dadx             0x4               /usr/local/GUTS/3dfx/glide-rush2.7/libglide.a(gdraw.o)
last_irq_delta      0x4               obj/timint.o
best_loop_time      0x4               obj/maxpath.o
trailing_edges      0x4               obj/globals.o
gPacketsReject      0x4               obj/dis.o
p3v                 0xc               obj/stree.o
ad8val              0x8               obj/pots.o
sst1CurrentBoard    0x4               /usr/local/GUTS/3dfx/glide-rush2.7/libglide.a(sst1init.o)
negotiate_time      0x4               obj/select.o
dbgstr              0x50              obj/debug.o
old_vec0            0x4               obj/camera.o
lap_opt             0x4               obj/globals.o
gForceOffset        0x2               obj/game.o
last_relpos         0x300             obj/maxpath.o
DBG_AG_magic        0x4               obj/debug.o
dbgintp             0x4               /home/boffo/usr7/rush/game/OS/libos.a(dispatch.o)
xDel1               0x4               obj/stree.o
EntryBlit           0x4               obj/hiscore.o
PolyTypeZMod        0x2               /home/boffo/usr7/rush/game/MB/zmb.a(mb_poly.o)
current_drone       0x2               obj/maxpath.o
glob_light_vector   0xc               /home/boffo/usr7/rush/game/MB/zmb.a(mb_lights.o)
lock_model_count    0x4               /home/boffo/usr7/rush/game/MB/zmb.a(mb_model.o)
num_drones          0x2               obj/globals.o
p1uv                0x24              obj/stree.o
dbgBCastCnt         0x4               obj/dis.o
lastthrottle        0x20              obj/maxpath.o
sound_adjust        0x2               obj/moobs.o
dlevels             0x4               obj/globals.o
which_engine        0x2               obj/game.o
__debugGets         0x4               /usr/local/GUTS/3dfx/glide-rush2.7/libglide.a(gu.o)
floating_exceptions
                    0x1c              /home/boffo/usr7/rush/game/OS/libos.a(fexcp.o)
init_pots_flag      0x4               obj/pots.o
path_end            0x2               obj/stree.o
track_len           0x8               obj/globals.o
save_pos            0x60              obj/resurrect.o
gAllTracksLocked    0x1               obj/dis.o
prc_q_ast_vec       0x4               /home/boffo/usr7/rush/game/OS/libos.a(phx_shims.o)
drone_diff          0x1               obj/globals.o
lap_loop_distance   0x4               obj/checkpoint.o
dr_campos           0xc               obj/mdrive.o
OSTimerFunc         0x4               obj/timer.o
gMsecPerCount       0x4               obj/globals.o
gpos                0xc               obj/stree.o
xxxColForce         0x4               obj/stree.o
LightHead           0x8               /home/boffo/usr7/rush/game/MB/zmb.a(mb_lights.o)
gFinishY            0x2               obj/hud.o
ScoreBlit           0x4               obj/hiscore.o
gCamPos             0xc               obj/globals.o
lastwheel           0x20              obj/maxpath.o
path_to_maxpath     0xbb8             obj/checkpoint.o
snd_buf             0xa               obj/sounds.o
DBG_AG_debug_num    0x4               obj/debug.o
gGameInited         0x1               obj/dis.o
saveview            0x1               obj/camera.o
interrupt_count     0x4               /home/boffo/usr7/rush/game/OS/libos.a(phx_shims.o)
rpm                 0x2               obj/model.o
global_last_cp      0x2               obj/checkpoint.o
ITIME               0x4               obj/timer.o
smc_data            0x128             /home/boffo/usr7/rush/game/OS/libos.a(smc_main.o)
debug_mode          0x4               /home/boffo/usr7/rush/game/OS/libos.a(selftest.o)
difficulty_save     0x8               obj/globals.o
aa_dady             0x4               /usr/local/GUTS/3dfx/glide-rush2.7/libglide.a(gdraw.o)
gWheelInt           0x2               obj/globals.o
lock_MEG4_hole      0x4               /home/boffo/usr7/rush/game/MB/zmb.a(mb_model.o)
gas                 0x2               obj/model.o
stempa              0x6               obj/stree.o
qio_reent           0x4               /home/boffo/usr7/rush/game/OS/libos.a(mallocr.o)
attract_music       0x1               obj/globals.o
gClutchLocked       0x1               obj/select.o
gHeartTime          0x4               obj/game.o
mpath_edit          0x2               obj/globals.o
fcam                0x30              obj/camera.o
index2              0x4               obj/checkpoint.o
velfres             0x2               obj/fswheel.o
sends               0x20              obj/reckon.o
xFRpos              0xc               obj/stree.o
start_announcer     0x2               obj/game.o
maxpath_index       0x2               obj/maxpath.o
demo_path_point     0x2               obj/mdrive.o
p0uv                0x24              obj/stree.o
_smc_putstr_vec     0x4               /home/boffo/usr7/rush/game/OS/libos.a(net_test.o)
oldplaymask         0x1               /home/boffo/usr7/rush/game/OS/libos.a(stats.o)
xInterp             0x4               obj/stree.o
path_dist_index     0x28              obj/checkpoint.o
gTireCnt            0x4               obj/camera.o
ginvMsecPerCount    0x4               obj/globals.o
last_mpath_time     0x4               obj/maxpath.o
gmpath_save2        0x4               obj/maxpath.o
in_first_place      0x1               obj/checkpoint.o
mainline_reent      0x4               /home/boffo/usr7/rush/game/OS/libos.a(mallocr.o)
old_last_cp_index   0x4               obj/checkpoint.o
attractFunc         0x4               obj/attract.o
ZoidBGColor         0x4               /home/boffo/usr7/rush/game/MB/zmb.a(mb_state.o)
NewAnimobjs         0x120             obj/anim.o
NumBlits            0x4               obj/blit.o
xxxColDist          0x4               obj/stree.o
mem_count           0x4               obj/mem.o
gGasInt             0x2               obj/globals.o
gTourneyJoin        0x1               obj/attract.o
gFogGroup           0x4               obj/targets.o
lock_tex_holes      0x4               /home/boffo/usr7/rush/game/MB/zmb.a(mb_model.o)
misc_handles        0x14              obj/moobs.o
sound_index         0x2               obj/sounds.o
num_pads            0x2               obj/select.o
MEM_BYTES           0x4               obj/mem.o
vid_tclr            0x4               /home/boffo/usr7/rush/game/OS/libos.a(sst_text.o)
path_point_index    0x2               obj/checkpoint.o
gLiveNodes          0x4               obj/dis.o
drone_active        0x8               obj/moobs.o
IRQTIME             0x4               obj/globals.o
mpath_save2         0x4               obj/maxpath.o
gFlyYaw             0x4               obj/debug.o
xMgUvPos            0xc               obj/debug.o
gCurCam             0x2               obj/select.o
_HW_CONFIGURATION   0x28              /usr/local/GUTS/3dfx/glide-rush2.7/libglide.a(gsst.o)
xUv                 0x24              obj/stree.o
gNextRequest        0x4               obj/dis.o
quat_slot           0x2               obj/resurrect.o
gRoadHead           0x4               obj/stree.o
gErrnum             0x4               obj/debug.o
play_time           0x4               obj/select.o
gLastGameTime       0x4               obj/init.o
dedges              0x4               obj/globals.o
xDel2               0x4               obj/stree.o
eer_rtc             0x4               /home/boffo/usr7/rush/game/OS/libos.a(eedrive.o)
marker_flag         0x1               obj/globals.o
gWait4TrkPlaying    0x1               obj/select.o
mod_sw              0x4               /home/boffo/usr7/rush/game/OS/libos.a(swt_test.o)
our_drones          0x10              obj/mdrive.o
mcast_holdoff       0x1               obj/dis.o
autotrans           0x2               obj/model.o
num_our_drones      0x2               obj/mdrive.o
mpathnum            0x4               obj/maxpath.o
gCamUvs             0x24              obj/globals.o
num_mpaths          0x2               obj/maxpath.o
old_boost           0x20              obj/drones.o
continue_flag       0x1               obj/hiscore.o
AnimDebugInfo       0x4               obj/anim.o
tex_base            0x4               /home/boffo/usr7/rush/game/MB/zmb.a(mb_model.o)
last_sw_val         0x2               /home/boffo/usr7/rush/game/OS/libos.a(swt_test.o)
wind_state          0x8               obj/carsnd.o
count_num           0x1               obj/carsnd.o
_packerHackAddress  0x4               /usr/local/GUTS/3dfx/glide-rush2.7/libglide.a(gdraw.o)
_interpolantsByParamIndex
                    0x10100           /usr/local/GUTS/3dfx/glide-rush2.7/libglide.a(gdraw.o)
curstat             0x68              obj/stats.o
DBG_frame_blit      0x20              obj/debug.o
mpFlyTime           0x4               obj/maxpath.o
gFinishPoly         0x28              obj/targets.o
buffer_pool         0x3c              /home/boffo/usr7/rush/game/OS/libos.a(net_link.o)
gmpath_save         0x4               obj/maxpath.o
menu_tab            0x28              obj/menus.o
cur_drone           0x2               obj/mdrive.o
STAT_t1games        0x4               obj/stats.o
timerCount          0x4               obj/timer.o
global_laps         0x2               obj/checkpoint.o
gHudMovie           0x4               obj/hud.o
NumLSN              0x4               /home/boffo/usr7/rush/game/OS/libos.a(phx_hdshims.o)
boardsFound         0x4               /usr/local/GUTS/3dfx/glide-rush2.7/libglide.a(sst1init.o)
_impure_ptr         0x4               /home/boffo/usr7/rush/game/OS/libos.a(mallocr.o)
gStartDuringLoad    0x1               obj/attract.o
whats_your_name_time
                    0x4               obj/game.o
__gu_prim_vertex_array
                    0x1770            /usr/local/GUTS/3dfx/glide-rush2.7/libglide.a(gu.o)
DBG_lsbtime         0x4               obj/debug.o
last_rwr            0x300             obj/maxpath.o
gNetDelay           0x1               obj/dis.o
dbgFogMaxDist       0x20              obj/debug.o
MEG2_hole           0x4               /home/boffo/usr7/rush/game/MB/zmb.a(mb_model.o)
gBroadcast          0x6               obj/dis.o
vsyintp             0x4               /home/boffo/usr7/rush/game/OS/libos.a(dispatch.o)
bump_time           0x4               obj/carsnd.o
weight_index        0x2               obj/maxpath.o
BCDVec              0xc               obj/balloon.o
buf                 0x42              obj/checkpoint.o
nsc_wait_vec        0x4               /home/boffo/usr7/rush/game/OS/libos.a(phx_ide.o)
last_eertc          0x4               /home/boffo/usr7/rush/game/OS/libos.a(stats.o)
LightList           0x4               /home/boffo/usr7/rush/game/MB/zmb.a(mb_lights.o)
lap_loop_index      0x2               obj/checkpoint.o
playitagain_time    0x4               obj/game.o
rear_x              0x4               obj/camera.o
negotiate_tchan     0x40              obj/select.o
num_finish_polys    0x4               obj/targets.o
mpFlyYaw            0x4               obj/maxpath.o
buffer_average      0x4               obj/moobs.o
speed_delta         0x4               obj/maxpath.o
_guts_astlvl        0x4               /home/boffo/usr7/rush/game/OS/libos.a(phx_shims.o)
last_track_loaded   0x2               obj/globals.o
mpath_save_num      0x4               obj/maxpath.o
gGameStats          0x4               obj/stats.o
gClutchInt          0x2               obj/globals.o
dm2intp             0x4               /home/boffo/usr7/rush/game/OS/libos.a(dispatch.o)
smc_act_q_elt       0x10              /home/boffo/usr7/rush/game/OS/libos.a(net_link.o)
invmag              0x4               obj/vecmath.o
sort_object_count   0x4               /home/boffo/usr7/rush/game/MB/zmb.a(mb_objects.o)
clutch              0x2               obj/model.o
exception_count     0x4               /home/boffo/usr7/rush/game/OS/libos.a(phx_shims.o)
sfontX              0x1c              obj/hiscore.o
dbgFogColor         0x20              obj/debug.o
tex_holes           0x4               /home/boffo/usr7/rush/game/MB/zmb.a(mb_model.o)
mpFlyUvs            0x24              obj/maxpath.o
eer_state           0x24              /home/boffo/usr7/rush/game/OS/libos.a(eedrive.o)
last_dir            0x60              obj/maxpath.o
read_raw_sw_vec     0x4               /home/boffo/usr7/rush/game/OS/libos.a(swt_test.o)
sst1InitSliSlaveVirtAddr
                    0x4               /usr/local/GUTS/3dfx/glide-rush2.7/libglide.a(sst1init.o)
mpFlyPos            0xc               obj/maxpath.o
mprecording         0x4               obj/maxpath.o
PolyInstanceList    0x4000            /home/boffo/usr7/rush/game/MB/zmb.a(mb_poly.o)
slist               0x4               obj/stree.o
WorldBase           0x4               obj/world.o
dummy               0x4               obj/maxpath.o
pc_at_interrupt     0x4               /home/boffo/usr7/rush/game/OS/libos.a(phx_shims.o)
car_sound_handle    0x9               obj/sounds.o
_ice_pkts           0x4               /home/boffo/usr7/rush/game/OS/libos.a(phx_shims.o)
GNerrcnt            0x14              obj/gamenet.o
gLapsLeft           0x2               obj/hud.o
gBrakeVal           0x4               obj/globals.o
gMirrorMode         0x4               obj/globals.o
carnum              0x2               obj/model.o
mpath_active        0x20              obj/maxpath.o
SPF                 0x4               obj/timer.o
__time_q            0x14              /home/boffo/usr7/rush/game/OS/libos.a(phx_time.o)
global_next_cp      0x2               obj/checkpoint.o
gModeldatLock       0x4               obj/globals.o
fake_controls       0x4               /home/boffo/usr7/rush/game/OS/libos.a(swt_test.o)
iniStackPtr         0x4               /usr/local/GUTS/3dfx/glide-rush2.7/libglide.a(sst1init.o)
mpaths              0x10              obj/maxpath.o
gSimManager         0x1               obj/dis.o
WHEEL_RNG           0x2               obj/pots.o
velsq               0x4               obj/model.o
fgpos               0xc               obj/stree.o
end_game_flag       0x1               obj/globals.o
gLink               0xe0              obj/dis.o
process_ast_q_vec   0x4               /home/boffo/usr7/rush/game/OS/libos.a(phx_shims.o)
__gdraw_dxAB        0x4               /usr/local/GUTS/3dfx/glide-rush2.7/libglide.a(gdraw.o)
gPulse              0x1               obj/game.o
skid_intensity      0x80              obj/carsnd.o
attract_music_save  0x1               obj/globals.o
path_start          0x2               obj/stree.o
oldrawpos           0x4               obj/fswheel.o
RamLightList        0xa0              /home/boffo/usr7/rush/game/MB/zmb.a(mb_lights.o)
rawswforce          0x2               obj/fswheel.o
lock_texdef_count   0x4               /home/boffo/usr7/rush/game/MB/zmb.a(mb_model.o)
drone_handle        0x8               obj/moobs.o
NumLights           0x4               /home/boffo/usr7/rush/game/MB/zmb.a(mb_lights.o)
mpath_num           0x20              obj/maxpath.o
prc_q_action_vec    0x4               /home/boffo/usr7/rush/game/OS/libos.a(phx_shims.o)
gCarLocked          0x1               obj/select.o
pn_array            0x40              /home/boffo/usr7/rush/game/OS/libos.a(smc_main.o)
svert               0x4               obj/stree.o
p0v                 0xc               obj/stree.o
gRoadDat            0x4               obj/stree.o
gFlyMode            0x4               obj/globals.o
in_tunnel           0x1               obj/globals.o
TrigCalls           0x4               obj/fmath.o
total_time_given    0x4               obj/checkpoint.o
mem_pool            0x4               obj/mem.o
ccmds               0x4               /home/boffo/usr7/rush/game/OS/libos.a(audio.o)
maxpath_dist        0xfa0             obj/maxpath.o
gFlySpeed           0x4               obj/debug.o
drones              0x10              obj/globals.o
spring_save         0x4               obj/visuals.o
coast_flag          0x1               obj/globals.o
model_count         0x4               /home/boffo/usr7/rush/game/MB/zmb.a(mb_model.o)
game_car            0x3090            obj/globals.o
DBG_timebar_blits_setup
                    0x4               obj/debug.o
mpath_tab           0x20              obj/maxpath.o
gNeedCleanup        0x1               obj/game.o
ObjInstanceFlags    0x2000            /home/boffo/usr7/rush/game/MB/zmb.a(mb_objects.o)
pal_base            0x4               /home/boffo/usr7/rush/game/MB/zmb.a(mb_model.o)
gameint             0x4               /home/boffo/usr7/rush/game/OS/libos.a(sst_vid.o)
difficulty          0x8               obj/globals.o
num_selections      0x2               obj/menus.o
sst1BoardInfo       0x980             /usr/local/GUTS/3dfx/glide-rush2.7/libglide.a(sst1init.o)
xxxpos              0x4               obj/fswheel.o
sound_table         0x48              obj/moobs.o
m_dlevels           0x4               obj/globals.o
MEG6_hole           0x4               /home/boffo/usr7/rush/game/MB/zmb.a(mb_model.o)
LocalLights         0x80              /home/boffo/usr7/rush/game/MB/zmb.a(mb_state.o)
gTargetList         0x8ca0            obj/targets.o
DBG_bar_blit        0x20              obj/debug.o
oil                 0x2               obj/model.o
gErrOverride        0x1               obj/dis.o
aa_start            0x4               /usr/local/GUTS/3dfx/glide-rush2.7/libglide.a(gdraw.o)
gThisEntity         0x4               obj/dis.o
out_tidx            0x2               /home/boffo/usr7/rush/game/OS/libos.a(audio.o)
MS4Field            0x4               /home/boffo/usr7/rush/game/OS/libos.a(sst_vid.o)
stree               0x4               obj/stree.o
updtimer            0x4               /home/boffo/usr7/rush/game/OS/libos.a(stats.o)
mcast_channel       0x40              obj/dis.o
DBG_perf            0x20              obj/debug.o
ObjInstanceList     0x30000           /home/boffo/usr7/rush/game/MB/zmb.a(mb_objects.o)
scrape_time         0x4               obj/carsnd.o
stemp               0x6               obj/stree.o
mpath               0x4               obj/maxpath.o
frames              0x4               obj/init.o
brake               0x2               obj/model.o
humans              0x10              obj/globals.o
__gu_prim_num_verts
                    0x4               /usr/local/GUTS/3dfx/glide-rush2.7/libglide.a(gu.o)
time_eachpl         0x8               /home/boffo/usr7/rush/game/OS/libos.a(stats.o)
mpFlySpeed          0x4               obj/maxpath.o
gMaxPath            0x4               obj/maxpath.o
DBG_last_count      0x4               obj/debug.o
lap_flag            0x2               obj/globals.o
ftempb              0xc               obj/stree.o
INVSQRTAB           0xfa8             /home/boffo/usr7/rush/game/MB/zmb.a(mb_math.o)
objdef_ptrs         0x90              /home/boffo/usr7/rush/game/MB/zmb.a(mb_model.o)
prc_delay_vec       0x4               /home/boffo/usr7/rush/game/OS/libos.a(sst_vid.o)
negotiate_ttime     0x20              obj/select.o
dbgZf               0x4               obj/camera.o
gThisNode           0x1               obj/globals.o
timer_list          0x18              obj/timer.o
avg_sw_force        0x4               obj/fswheel.o
marker_a            0x2               obj/maxpath.o
marker_flag_save    0x1               obj/globals.o
last_m_dlevels      0x4               obj/mdrive.o
NumBlitInsts        0x4               /home/boffo/usr7/rush/game/MB/zmb.a(mb_blit.o)
Blits               0x4b00            obj/blit.o
dbg_str             0x4               /home/boffo/usr7/rush/game/OS/libos.a(sst_text.o)
num_samples         0x2               obj/moobs.o
new_pathnum         0x4               obj/maxpath.o
skip                0x1               obj/attract.o
framevec            0x4               /home/boffo/usr7/rush/game/OS/libos.a(dispatch.o)
negotiate_tdata     0x20              obj/select.o
gSimID              0x4               obj/dis.o
__gdraw_dxBC        0x4               /usr/local/GUTS/3dfx/glide-rush2.7/libglide.a(gdraw.o)
volumes             0x14c             /home/boffo/usr7/rush/game/OS/libos.a(fsys.o)
record_buffer       0x4               obj/globals.o
num_misc_moobs      0x2               obj/moobs.o
modelrun            0x2               obj/model.o
timervec            0x4               /home/boffo/usr7/rush/game/OS/libos.a(dispatch.o)
sst1InitDeviceNumber
                    0x4               /usr/local/GUTS/3dfx/glide-rush2.7/libglide.a(sst1init.o)
iniVideo            0x4               /usr/local/GUTS/3dfx/glide-rush2.7/libglide.a(sst1init.o)
sw_val              0x2               /home/boffo/usr7/rush/game/OS/libos.a(swt_test.o)
envVarsBase         0x4               /usr/local/GUTS/3dfx/glide-rush2.7/libglide.a(sst1init.o)
sched_index         0x2               obj/mdrive.o
last_m_levels       0x4               obj/mdrive.o
num_active_cars     0x1               obj/globals.o
ObjInstanceUpdate   0x2000            /home/boffo/usr7/rush/game/MB/zmb.a(mb_objects.o)
gBrakeRaw           0x2               obj/globals.o
mirror_flag         0x4               obj/select.o
gstate              0x4               obj/globals.o
dbgYf               0x4               obj/camera.o
gTourneyStart       0x1               obj/dis.o
gGameLoopTime       0x4               obj/init.o
current_mcast_channel
                    0x4               obj/dis.o
mpath_change_mode   0x2               obj/maxpath.o
all_cars_locked_time
                    0x4               obj/select.o
crashthreshold      0x2               obj/model.o
startermotor        0x2               obj/model.o
stempb              0x6               obj/stree.o
cur_mpath_point_f32
                    0x4               obj/maxpath.o
torque_fix          0x4               obj/carsnd.o
sst1InitUseVoodooFile
                    0x4               /usr/local/GUTS/3dfx/glide-rush2.7/libglide.a(sst1init.o)
ast_reent           0x4               /home/boffo/usr7/rush/game/OS/libos.a(mallocr.o)
clutchdepressed     0x2               obj/model.o
maxpath_to_path     0xfa0             obj/maxpath.o

Memory Configuration

Name             Origin             Length            
prog             0x0000000080000000 0x0000000000280000
stuff            0x0000000000000000 0x0000000010000000
junk             0x0000000000000000 0x0000000000000000
*default*        0x0000000000000000 0xffffffffffffffff

Linker script and memory map

                0x0000000000000000                _DYNAMIC_LINK=0x0

.text           0x0000000080000000    0xe0bb0
                0x0000000080000000                _ftext=.
                0x0000000080000000                text_start=.
 /home/boffo/usr7/rush/game/OS/phx_root.o(.rodata)
 .rodata        0x0000000080000000    0x10000 /home/boffo/usr7/rush/game/OS/phx_root.o
                0x0000000080000180                vec3
                0x0000000080000400                pm_start
                0x0000000080000000                startup
                0x0000000080000200                vec4
                0x000000008000037c                stub_running
                0x0000000080000080                vec1
                0x0000000080000000                romv_tbl
                0x0000000080000400                powerUp
                0x0000000080000404                pm_data
                0x0000000080000380                vec7
                0x0000000080000100                vec2
                0x0000000080000300                vec6
                0x0000000080000280                vec5
                0x00000000800004fc                pm_end
 *(.text)
 .text          0x0000000080010000     0x1560 /home/boffo/usr7/rush/game/OS/phx_root.o
                0x0000000080010858                prc_get_ipl
                0x00000000800107d0                prc_enable_cp1
                0x000000008001150c                go_to_self_test
                0x00000000800108f8                prc_get_count
                0x00000000800107f8                prc_set_fpcsr
                0x00000000800113b8                prc_inv_pdcache
                0x0000000080010818                prc_get_fpcsr
                0x00000000800114ec                mem_test_msgs
                0x0000000080010908                prc_get_compare
                0x00000000800108a0                prc_set_sr
                0x0000000080011388                prc_flush_pdcache
                0x0000000080010000                boot_entry
                0x0000000080010000                begin
                0x00000000800112f8                zag_test_bram
                0x0000000080010a98                normal_exception
                0x0000000080010ed8                prc_panic
                0x0000000080010730                prc_blink_led
                0x00000000800108c0                prc_adj_msclock
                0x0000000080010790                prc_wait_n_usecs
                0x0000000080010828                prc_get_cause
                0x0000000080011510                prc_reset_hardware
                0x0000000080010838                prc_set_cause
                0x0000000080010cb0                returnToUser
                0x0000000080010918                prc_set_count
                0x0000000080010958                prc_set_ipl
                0x0000000080010e78                wait_forever
                0x00000000800109f0                except
                0x0000000080010868                prc_isie
                0x0000000080010938                prc_set_compare
 .text          0x0000000080011560       0x10 obj/root.o
 .text          0x0000000080011570     0x3480 obj/attract.o
                0x0000000080014310                AddJoinNow
                0x0000000080013a54                AnimateTimer
                0x000000008001326c                ShowGameOver
                0x0000000080011570                InitAttract
                0x0000000080013e08                AnimateBlink
                0x00000000800140c4                AnimateCreds
                0x00000000800131d4                choose_next_tune
                0x0000000080011980                AttractForce
                0x0000000080012970                ShowTransit
                0x00000000800119c8                raceAvailable
                0x0000000080011a90                attract
                0x000000008001308c                play_demogame
                0x0000000080012cb8                AnimateTransit
 .text          0x00000000800149f0     0x3480 obj/camera.o
                0x00000000800149f0                init_view
                0x0000000080016b48                DeathCam
                0x0000000080015ce8                update_car_object
                0x00000000800169c0                UpdateCarObj
                0x0000000080017280                circle_camera_around_car
                0x0000000080017bb0                point_at_car
                0x0000000080014e08                CheckCameraView
                0x000000008001530c                setcamview
                0x0000000080014d30                SetMCamera
                0x00000000800152ac                view1_suscomp_offset
                0x0000000080015d3c                View3Cam
                0x00000000800175d8                steady_move_cam
                0x0000000080014a24                init_view3
                0x0000000080014af8                SelectCam
                0x000000008001738c                init_camera_on_track
                0x00000000800174fc                init_steady_move_cam
                0x0000000080017488                fix_camera_in_space
                0x000000008001792c                init_maxpath_cam
                0x0000000080014ac8                ZeroCamera
                0x0000000080017cf4                LookInDir
                0x00000000800179dc                maxpath_cam
                0x0000000080014d00                UpdateCam
 .text          0x0000000080017e70     0x2ad0 obj/carsnd.o
                0x000000008001a740                StartRadio
                0x000000008001a5c0                init_skids
                0x00000000800193f4                kill_scrape_sound
                0x0000000080019448                target_inside_box
                0x000000008001873c                do_bump_sounds
                0x00000000800197a8                StartEngineSound
                0x0000000080017fb4                DoCarSounds
                0x0000000080019528                target_sound
                0x0000000080017e70                InitSndState
                0x0000000080019068                check_forces_on_car
                0x000000008001a7b4                handle_reverb
                0x0000000080017e84                InitCarSnds
                0x0000000080019114                get_force_and_peak
                0x00000000800199a8                StopEngineSound
                0x00000000800193b4                init_bump
                0x0000000080017f38                init_bump_sounds
                0x000000008001983c                DoEngineSound
                0x000000008001a71c                StopRadio
                0x00000000800199c8                DoTireSqueals
                0x000000008001a764                init_reverb
                0x0000000080017f94                DoIntCarSounds
 .text          0x000000008001a940     0x3dd0 obj/checkpoint.o
                0x000000008001e4bc                fwd_path_points
                0x000000008001e224                display_path_points
                0x000000008001d104                CarPassedCheckpoint
                0x000000008001b6c0                get_next_center
                0x000000008001e58c                update_lap_counter
                0x000000008001a940                init_cp_data
                0x000000008001dd7c                del_chkpnt
                0x000000008001d954                display_chkpnts
                0x000000008001ddac                fwd_chkpnt
                0x000000008001d208                CarReportsGameOver
                0x000000008001e518                back_path_points
                0x000000008001dd4c                add_chkpnt
                0x000000008001bf1c                JumpToNextCP
                0x000000008001bf6c                set_game_time_to_one_second
                0x000000008001cc8c                FPlaceOneCP
                0x000000008001b7b0                get_prev_center
                0x000000008001c02c                get_next_checkpoint
                0x000000008001c664                PassedCP
                0x000000008001ccfc                check_everyones_checkpoints
                0x000000008001bef4                init_cp_time
                0x000000008001dfe8                back_chkpnt
                0x000000008001b8c8                InitCPS
                0x000000008001c054                CheckCPs
                0x000000008001cbf0                FPutCheckpoints
 .text          0x000000008001e710      0x100 obj/cksum.o
                0x000000008001e7a0                ckSumGet
 .text          0x000000008001e810     0x14c0 obj/collision.o
                0x000000008001e8a4                collision
                0x000000008001f118                setCollisionDamage
                0x000000008001fc48                distributeForce
                0x000000008001f2c4                simpleCollForce
                0x000000008001ec0c                ForceApart
                0x000000008001eb68                PointInBody
                0x000000008001fa28                CollForceOtherIn
                0x000000008001f82c                CollForceMineIn
                0x000000008001f708                collForceNormal
                0x000000008001ed6c                setFBCollisionForce
                0x000000008001f47c                setCenterForce
                0x000000008001e810                init_collision
 .text          0x000000008001fcd0     0x3c80 obj/debug.o
                0x0000000080020f78                DBG_tweak_sus
                0x000000008001fd10                DBG_txt_clr
                0x00000000800212b0                DBG_mbox_numbers
                0x00000000800206b8                DBG_drawFogger
                0x0000000080022f88                SEMSG
                0x0000000080022eb4                EMSG
                0x00000000800231d4                ClearLine
                0x000000008002198c                DBG_hide_timebar
                0x00000000800213dc                DBG_mbox_times
                0x0000000080023184                ClearText
                0x000000008001fcd0                DBG_init_debug
                0x000000008001fe18                DBG_initFogger
                0x0000000080021134                DBG_print_fps
                0x00000000800234d4                flyaround_cleanup
                0x000000008001fd70                DBG_printf
                0x000000008002188c                DBG_init_timebar_blits
                0x0000000080021e20                DBG_LimitFtime
                0x0000000080023204                NodeName
                0x00000000800232c8                GameState
                0x0000000080021e5c                DBG_disp_timebar
                0x000000008002123c                DBG_disp_perf
                0x000000008001ffa4                DBG_print_AG_debug
                0x0000000080021218                DBG_init_perf
                0x0000000080021a4c                DBG_set_bar_color
                0x000000008001feb8                DBG_AddMgUv
                0x0000000080021a8c                DBG_update_frame_blits
                0x0000000080021cc0                DBG_update_timebar
                0x0000000080020e4c                new_sus
                0x000000008002261c                DBG_print_catchup_info
                0x00000000800235cc                flyaround
                0x00000000800225bc                DBG_AG_magic_switch
                0x00000000800230b4                CMSG
                0x0000000080021864                DBG_perf_frame_init
                0x00000000800223bc                DBG_AG_print_steering
                0x00000000800229d4                print_tire_info
                0x0000000080022ff0                SMSG
                0x0000000080022898                DBG_print_model_info
                0x000000008001fde0                DBG_init_AG_debug
                0x000000008001fcf0                DBG_print_debug
                0x0000000080020244                DBG_doFogger
                0x0000000080020c84                DBG_drawEngTweak
                0x00000000800233a0                flyaround_init
                0x00000000800208e0                DBG_doEngineTweak
                0x0000000080022dc0                MSG
 .text          0x0000000080023950     0x42f0 obj/dis.o
                0x0000000080026c98                MarkAlive
                0x00000000800269f8                PickSimManager
                0x00000000800267f0                ResetGameLink
                0x000000008002726c                NodeStat
                0x000000008002642c                send_countdown
                0x00000000800272fc                ResetJoinIn
                0x0000000080026904                FlagName
                0x00000000800245cc                SetComChannel
                0x00000000800242e8                SendPDU
                0x0000000080025dd4                start_countdown
                0x0000000080025d00                make_node_solo
                0x0000000080026aa0                find_sim_manager
                0x0000000080023d0c                ProcessPDUs
                0x0000000080026334                send_model_countdown
                0x0000000080026d78                RemoveFromGame
                0x0000000080026b04                Heartbeat
                0x0000000080023a48                InitializeDIS
                0x00000000800273b8                handle_mcast_channel
 .text          0x0000000080027c40      0xb90 obj/dnl.o
                0x00000000800285ec                read_file_from_hd
                0x0000000080028074                LoadCars
                0x00000000800286fc                CheckModelType
                0x0000000080028348                loadTrack
                0x0000000080027c40                loadInit
                0x0000000080027ffc                LoadModel
                0x0000000080028558                write_file_to_hd
                0x0000000080027d7c                Load
                0x0000000080028624                get_path
 .text          0x00000000800287d0     0x1be0 obj/drones.o
                0x0000000080028888                DoDrones
                0x0000000080028904                EndDrones
                0x00000000800287d0                InitDrones
                0x000000008002890c                assign_drones
                0x000000008002a2d4                linear_interp
 .text          0x000000008002a3b0      0xbd0 obj/fswheel.o
                0x000000008002a5d0                frictwheel
                0x000000008002a6c4                ModelSteerForce
                0x000000008002a400                wheelpos
                0x000000008002acc4                WheelSection
                0x000000008002aef4                force_wheel_to_center
                0x000000008002a3b0                InitSW
                0x000000008002a620                setswforce
                0x000000008002aa14                OverrideForce
                0x000000008002a424                PotWheelPos
                0x000000008002a5a0                freewheel
                0x000000008002ae08                RawWheelSection
 .text          0x000000008002af80     0x1970 obj/game.o
                0x000000008002bc94                preplay
                0x000000008002b380                game
                0x000000008002bfd4                playgame
                0x000000008002c528                do_car_setup
                0x000000008002c3fc                demo_endgame
                0x000000008002c648                CleanupAfterGame
                0x000000008002af80                game_init
 .text          0x000000008002c8f0      0xf10 obj/gamenet.o
                0x000000008002c9f0                gnNetCallback
                0x000000008002d6f8                gnUpdate
                0x000000008002c8f0                gnInit
                0x000000008002d798                gnGetCountdownTime
 .text          0x000000008002d800      0x100 obj/globals.o
                0x000000008002d8b4                set_gthisnode
                0x000000008002d800                init_glob
 .text          0x000000008002d900     0x3590 obj/hiscore.o
                0x000000008002e314                cvt_time_str
                0x000000008002f610                GetHighScoreName
                0x000000008002e80c                InitGameScores
                0x000000008003075c                AddMsg
                0x000000008003067c                InitMsgs
                0x000000008002d96c                revcpy
                0x00000000800309ec                RemoveMsgs
                0x000000008002f324                HiScoreForce
                0x000000008002ed34                SaveHighScore
                0x000000008002f364                ShowScoreEntry
                0x000000008002d9e0                ShowHiScore
                0x000000008002eb84                LoadHighScores
                0x0000000080030e2c                check_ctrs
                0x000000008002e878                HiScoreRank
                0x000000008002ea4c                ClearHighScores
                0x000000008002ef80                EnterHighScore
 .text          0x0000000080030e90     0x33a0 obj/hud.o
                0x0000000080033bf8                InitDigitList
                0x0000000080033c6c                updateList
                0x0000000080032cf4                ShowCheckpointTime
                0x0000000080032930                CropBlit
                0x0000000080033960                UpdateNumber
                0x0000000080030fb0                RemoveHUD
                0x0000000080032790                EnableRadioHUD
                0x0000000080033924                Hidden
                0x00000000800331e0                ShowFinishFlag
                0x0000000080033f90                cvt_time
                0x0000000080033ce8                updateList2
                0x0000000080030e90                InitHUD
                0x0000000080030f20                ShowHUD
 .text          0x0000000080034230      0x5a0 obj/init.o
                0x0000000080034454                init
                0x0000000080034570                reinit_zoid
                0x0000000080034300                game_loop
                0x0000000080034230                start
 .text          0x00000000800347d0     0x35b0 obj/math.o
                0x0000000080034a30                scos32
                0x0000000080036c2c                GetZoidLongUVS
                0x0000000080037544                ScaleDown
                0x0000000080037400                ScaleUp
                0x0000000080036a14                GetZoidUVS16
                0x0000000080034d90                uyaw
                0x00000000800354f8                lsqrt
                0x0000000080036294                uroll32
                0x0000000080036ce8                ConvLongUVS
                0x0000000080036b18                UndoZoidUVS
                0x0000000080035d84                ScaleVector32
                0x0000000080034f38                uroll
                0x0000000080037d1c                matcopyD2M
                0x0000000080036498                Get32Euler
                0x0000000080036564                Get32UVS
                0x00000000800367c4                GetUnivZoidUVS
                0x0000000080034cd8                posdir
                0x0000000080035678                GetEuler32
                0x0000000080037b3c                uftransvec
                0x0000000080034e64                upitch
                0x0000000080037aa8                ftransvec
                0x0000000080036034                DotUV32
                0x0000000080035c9c                SubVector32
                0x0000000080036624                GetZoid32UVS
                0x0000000080035290                pitch32
                0x0000000080034898                sincos
                0x0000000080035cd0                AddVector16
                0x0000000080036eac                adjust_z
                0x0000000080036e40                adjust_y
                0x0000000080037204                DistPtOnLine
                0x00000000800368e0                GetZoidUVS
                0x0000000080036d74                ConvU16UVS
                0x00000000800366ec                GetUVS
                0x00000000800347d0                ssin
                0x00000000800348f0                satan
                0x0000000080037bd0                FastDst
                0x0000000080036f3c                CvtAng16
                0x000000008003611c                uyaw32
                0x0000000080036474                satan32
                0x0000000080037cc0                matcopyM2D
                0x0000000080035bbc                CrossProduct32
                0x00000000800363dc                posdir32
                0x0000000080035d38                ScaleVector16
                0x0000000080035738                GetZoidEuler
                0x00000000800376c8                MakeUVS
                0x0000000080035a58                CrossProduct14
                0x0000000080035434                roll32
                0x0000000080035dd0                Concat32
                0x0000000080035d04                AddVector32
                0x0000000080037ca0                veccopyD2M
                0x0000000080037850                Transvec
                0x00000000800361d8                upitch32
                0x000000008003590c                DotProduct14
                0x0000000080036dd4                adjust_x
                0x0000000080037c40                veccopyM2D
                0x0000000080037950                UTransvec
                0x00000000800350ec                yaw32
                0x0000000080036f48                LookInDirection
                0x0000000080034bd0                sasin
                0x000000008003500c                yaw
                0x0000000080035c68                SubVector16
                0x000000008003555c                GetEuler
                0x00000000800351b0                pitch
                0x0000000080035354                roll
                0x00000000800359e0                DotProduct32
                0x0000000080036f18                AddAngles
                0x0000000080036d14                Conv16UVS
                0x0000000080034998                ssin32
                0x0000000080034ac8                possin32
                0x0000000080036f30                CvtAng32
                0x000000008003598c                DotProduct16
                0x0000000080037c00                vecM2D
                0x0000000080037c60                vecD2M
                0x0000000080037a50                swaparray
                0x0000000080034a54                possin
                0x000000008003762c                GetEulerAngles
                0x00000000800360ac                GetQuadrant
                0x0000000080035b10                CrossProduct16
                0x0000000080034870                scos
 .text          0x0000000080037d80      0x2c0 obj/mathsubs.o
                0x0000000080037f34                COPYUV
                0x0000000080037ffc                MOVMEM
                0x0000000080037d80                MUL
                0x0000000080037ec4                INTRP32
                0x0000000080037fe4                intswap
                0x0000000080037dfc                MUL32
                0x0000000080037e88                DIV32
                0x0000000080037f0c                L_DIV_S
                0x0000000080037f8c                COPYUV32
                0x0000000080037e44                MULUV32
                0x0000000080037dac                MULSUM
 .text          0x0000000080038040     0x8410 obj/maxpath.o
                0x00000000800403d0                set_dist_weight
                0x00000000800403a8                select_drone6
                0x000000008003ebfc                copy_from_set2
                0x00000000800387e8                check_mpath_save
                0x000000008003e990                activate_mpath_set
                0x000000008003ca00                edit_maxpath_points
                0x000000008003a668                MP_TargetSteerPos
                0x00000000800403bc                select_drone7
                0x000000008003c92c                update_maxpath_data
                0x0000000080040434                set_hint_weight
                0x000000008003eae4                select_mpath_set6
                0x000000008003eb24                select_mpath_set
                0x000000008003e8b0                activate_mpath_set1
                0x000000008003edc4                stay_within_width1
                0x0000000080040358                select_drone2
                0x000000008003a8b4                AdjustSpeed
                0x0000000080038a64                MaxPath
                0x0000000080038c3c                PrintMaxPath
                0x0000000080038040                InitMaxPath
                0x000000008003d4d8                copy_mpath_section
                0x000000008003de58                set_direction_vector
                0x000000008004036c                select_drone3
                0x000000008003e7fc                edit_hint_data
                0x000000008003ec1c                copy_from_set3
                0x000000008003c93c                update_drone_time
                0x000000008003e070                check_link_ok
                0x000000008003ee04                get_on_maxpath1
                0x000000008003d0e8                set_post
                0x000000008003c9cc                write_drone_path_to_hd
                0x000000008003f05c                save_new_hint
                0x000000008003ecbc                copy_from_path
                0x0000000080040380                select_drone4
                0x000000008003f404                mp_fly_around
                0x000000008003ce8c                prev_maxpath_point
                0x000000008003eb04                select_mpath_set7
                0x0000000080040220                save_weight_table
                0x000000008003e970                activate_mpath_set7
                0x000000008003ec7c                copy_from_set6
                0x000000008003da70                straighten_maxpath
                0x0000000080040344                select_drone1
                0x000000008003e950                activate_mpath_set6
                0x000000008003ebbc                copy_from_base
                0x000000008003f030                reset_parallel2
                0x000000008003ef80                get_on_maxpath2
                0x000000008003fecc                edit_weight_table
                0x000000008003a41c                adjust_maxpath_due_to_lap
                0x000000008003e8f0                activate_mpath_set3
                0x000000008003b910                display_maxpath_points
                0x000000008003abc0                avoid_areas
                0x0000000080039004                next_maxpath
                0x0000000080038f70                NextMaxPath
                0x000000008003ee8c                stay_on_maxpath1
                0x0000000080039c60                find_maxpath_intervals
                0x000000008003dc54                delete_mpath_section
                0x00000000800403f8                set_speed_weight
                0x000000008003bb70                back_maxpath_points
                0x000000008003a320                update_mpath_index
                0x000000008003eaa4                select_mpath_set4
                0x000000008003d3d4                cancel_move_curve
                0x000000008003cf48                dec_path_priority
                0x000000008003a4a4                MP_TargetSpeed
                0x000000008003bbfc                link_maxpath_and_pathpoints
                0x0000000080040394                select_drone5
                0x000000008003d6bc                insert_mpath_section
                0x000000008003e910                activate_mpath_set4
                0x0000000080038f34                MaxPathZeroControls
                0x000000008003e8d0                activate_mpath_set2
                0x000000008003ea64                select_mpath_set2
                0x000000008003ec9c                copy_from_set7
                0x000000008003dff0                set_marker_a
                0x000000008003eed0                stay_parallel_to_maxpath1
                0x000000008003ebdc                copy_from_set1
                0x000000008003c984                write_cur_path_to_hd
                0x000000008003f124                update_mpath_edit
                0x000000008003f004                stay_parallel_to_maxpath2
                0x000000008003d184                curve_maxpath_point
                0x0000000080039ab8                mp_interval_pos
                0x000000008003ea0c                select_mpath_base
                0x000000008003bb00                fwd_maxpath_points
                0x000000008003c914                init_hint_table
                0x000000008003fe40                get_cur_hint
                0x000000008003ef14                reset_parallel1
                0x000000008003ea84                select_mpath_set3
                0x000000008003ea44                select_mpath_set1
                0x000000008003e930                activate_mpath_set5
                0x000000008003cfa8                update_posts
                0x0000000080039050                MP_FindInterval
                0x000000008003efac                ease_on_maxpath2
                0x0000000080038bbc                SaveMaxPathData
                0x000000008003c80c                set_maxpath_index
                0x000000008003c6d4                check_inside_out
                0x0000000080040334                select_drone0
                0x00000000800386f0                sync_maxpath_to_last_checkpoint
                0x000000008003efd8                stay_on_maxpath2
                0x0000000080038558                place_cars_in_order
                0x000000008003c734                find_maxpath_dist
                0x000000008003ef58                stay_within_width2
                0x0000000080038a94                RecordMaxPath
                0x000000008003ce10                next_maxpath_point
                0x0000000080038fa0                prev_maxpath
                0x000000008003e784                set_loop_data
                0x000000008003e304                create_maxpath_links
                0x000000008003cee4                inc_path_priority
                0x000000008003ee48                ease_on_maxpath1
                0x0000000080040420                set_priority_weight
                0x000000008003ec3c                copy_from_set4
                0x0000000080040250                read_weight_table
                0x000000008003e030                set_marker_b
                0x00000000800403e4                set_dir_weight
                0x000000008003aae0                AdjustSteer
                0x000000008003d2ac                move_maxpath_point
                0x0000000080039100                MP_IntervalPos
                0x000000008003840c                assign_default_paths
                0x000000008003eac4                select_mpath_set5
                0x0000000080038d74                MaxPathControls
                0x0000000080038f48                PrevMaxPath
                0x000000008003ec5c                copy_from_set5
                0x000000008003e81c                deactivate_mpath_set
                0x000000008004040c                set_own_weight
 .text          0x0000000080040450     0x2c60 obj/mdrive.o
                0x00000000800414a4                InitUvObj
                0x0000000080042280                PutModelInfo
                0x0000000080042f78                End_MDrive
                0x0000000080042340                modtodispuv
                0x0000000080041e08                update_link_cars
                0x0000000080041450                Update_MDrive
                0x0000000080040450                munge_gLink_data
                0x00000000800423f8                update_game_data
                0x0000000080042fd0                are_all_cars_stopped
                0x00000000800415c8                communication
                0x000000008004239c                fmodtodispuv
                0x0000000080040e34                fake_init
                0x00000000800422dc                multigo
                0x0000000080041978                update_player_model
                0x00000000800415a8                multicomm
                0x0000000080042e88                printslip
                0x0000000080041a3c                update_drone_models
                0x0000000080041048                get_demo_path_point
                0x0000000080042d40                dbodtorw
                0x00000000800407fc                init_cars
                0x0000000080041770                init_model_task
                0x00000000800422cc                modelstop
                0x00000000800417a8                model_iteration
                0x0000000080041ba8                update_model
                0x00000000800412c4                Init_MDrive
 .text          0x00000000800430b0      0x860 obj/menus.o
                0x00000000800430b0                check_menu
                0x0000000080043890                clear_menu
                0x0000000080043818                clear_display
                0x00000000800435e0                display_menu
 .text          0x0000000080043910      0x3a0 obj/model.o
                0x0000000080043c14                no_catchup
                0x0000000080043910                set_catchup
 .text          0x0000000080043cb0      0x460 obj/money.o
                0x0000000080043cf8                get_credits
                0x0000000080043e38                chk_start
                0x0000000080043cb0                init_credits
                0x0000000080043fc4                EnoughCredit
 .text          0x0000000080044110     0x1970 obj/moobs.o
                0x0000000080044e8c                okay_to_check_skid
                0x0000000080045428                check_sound_time
                0x0000000080044120                init_moobs
                0x0000000080044fa0                do_misc_sounds
                0x0000000080044110                InitMoobs
                0x00000000800459e0                init_drone_handles
                0x0000000080044e9c                add_moob_to_list
                0x00000000800459c4                get_next_handle
                0x0000000080044198                UpdateListener
 .text          0x0000000080045a80     0x1460 obj/pdu.o
                0x0000000080046770                PutEventReportPDU
                0x0000000080045a80                PutAcknowledgePDU
                0x00000000800466a8                PutEntityAppearancePDU
                0x0000000080045b4c                PutEntityStatePDU
                0x0000000080046a50                ParseEventReportPDU
                0x0000000080045b14                ParseAcknowledgePDU
                0x0000000080046eb4                GetTimeStamp
                0x0000000080045f74                ParseEntityStatePDU
                0x0000000080046734                ParseEntityAppearancePDU
                0x0000000080046d04                ReportPDUError
 .text          0x0000000080046ee0      0xcb0 obj/pots.o
                0x0000000080047b48                get_edges
                0x0000000080046f10                PotsRead
                0x0000000080047904                ReadGear
                0x00000000800477d0                ReadClutch
                0x0000000080047b08                get_levels
                0x0000000080047a58                get_switches
                0x00000000800479c0                ReadGasAndBrake
                0x0000000080047b28                get_dlevels
                0x00000000800475e4                initPots
                0x0000000080047710                sanity_check_pots
                0x0000000080047b68                get_dedges
                0x0000000080046ee0                PotsInit
                0x0000000080047864                ReadShifter
 .text          0x0000000080047b90     0x32f0 obj/resurrect.o
                0x0000000080049110                make_quat_from_uvs
                0x0000000080049f1c                update_resurrecting_car
                0x000000008004958c                get_major_axis
                0x00000000800495fc                dot_prod
                0x000000008004ad68                are_we_dead_or_dying
                0x00000000800496c8                non_linear_scale_setup
                0x000000008004a678                abort_car
                0x000000008004962c                interpolate
                0x000000008004a3f8                blink_resurrecting_cars
                0x000000008004977c                set_resurrection_data
                0x0000000080049b04                CheckCrash
                0x000000008004ade4                are_we_solid
                0x000000008004a864                detect_drone_abort
                0x00000000800492c4                find_best_quat
                0x0000000080049d54                check_if_finished_resurrecting
                0x00000000800493f0                get_normal_vector
                0x0000000080048ffc                make_uvs_from_quat
                0x000000008004a728                jump_to_next_checkpoint
                0x0000000080047b90                resurrect_car
 .text          0x000000008004ae80     0x5fa0 obj/select.o
                0x000000008004f69c                updateBoolean
                0x000000008004b13c                InitTrkSel
                0x000000008004f91c                CarSel
                0x000000008004f85c                CarSelForce
                0x0000000080050d68                BlinkUnlessPressed
                0x000000008004ae80                InitSelect
                0x00000000800504f4                race_negotiation
                0x0000000080050d58                SetGasReleased
                0x000000008004b5a8                TrackSel
                0x0000000080050be4                GetPlayTime
                0x0000000080050cd0                GasPressed
                0x000000008004d190                wait
                0x0000000080050c58                GetElapsedTime
                0x000000008004c848                create_cars
                0x000000008004b188                ShowTrackSelect
                0x000000008004cd18                waiting_for_others
                0x0000000080050bf4                SetCountdownTimerAt0
                0x000000008004ed0c                AnimateText
                0x0000000080050cb0                TimeOut
                0x0000000080050c88                SetCountdownTimer
                0x000000008004b33c                TrackSelForce
                0x000000008004c1a4                track_negotiation
                0x000000008004ee10                AnimateWheel
                0x0000000080050c48                GetStartTime
                0x0000000080050bc0                GetCountdownTime
                0x000000008004f6dc                ShowCarSelect
                0x0000000080050a80                CountDown
                0x000000008004c76c                init_car_select
                0x000000008004ef20                AnimatePedal
                0x0000000080050c70                ResetCountdownTimer
                0x000000008004f4e4                updateCar
 .text          0x0000000080050e20     0x1290 obj/sounds.o
                0x00000000800518a8                sndKillAllMoobs
                0x000000008005157c                sndChangeVelocity
                0x00000000800510dc                sndUpdate
                0x00000000800519e4                sndGravelNoise
                0x0000000080051290                sndStartStaticPitched
                0x000000008005156c                sndChangePosition
                0x0000000080051df4                sound_wparms
                0x0000000080051630                sndStartEngineWithVolume
                0x00000000800510fc                sndListenerUpdate
                0x0000000080051798                sndUpdateManualEngine
                0x0000000080051bd4                sndUpdateMoobEngine
                0x00000000800516fc                sndStartManualEngine
                0x0000000080051b64                doSndTest
                0x000000008005158c                sndChangePitch
                0x0000000080051964                sndRoadNoise
                0x0000000080051fdc                wait_for_sounds
                0x0000000080051e74                music
                0x00000000800516c8                sndUpdateAutoEngine
                0x0000000080051348                sndStartDopplerUnpitched
                0x0000000080051f80                init_car_sound_handles
                0x000000008005167c                sndChangeEngineWithVolume
                0x0000000080051854                sndStopEngine
                0x00000000800515ac                sndStartEngine
                0x00000000800518c8                sndDoSkid
                0x0000000080051820                sndEngineCrash
                0x000000008005202c                test_sounds
                0x000000008005159c                sndChangeFilter
                0x0000000080051ae4                sndSplashNoise
                0x0000000080051874                sndKillMoob
                0x0000000080051d40                SOUND
                0x00000000800515ec                sndChangeEngine_PF
                0x000000008005142c                sndStartDopplerPitched
                0x0000000080051a64                sndWindNoise
                0x00000000800511e8                sndStartStaticUnpitched
                0x000000008005153c                sndPositionSound
 .text          0x00000000800520b0     0x33c0 obj/stats.o
                0x00000000800551c8                stat_common_percents
                0x0000000080053590                HOURxDAY_template
                0x0000000080052e84                stat_disp
                0x000000008005210c                game_stats
                0x0000000080055248                stat_get_dayhour
                0x0000000080052538                stat_update
                0x0000000080054fc8                SELECT_numbers_template
                0x000000008005241c                stat_gameover
                0x00000000800552e0                stat_save_daytime
                0x00000000800527c8                reset_gamestats
                0x0000000080052f0c                TIMExTRK_hist
                0x00000000800551d8                stat_track_numbers
                0x0000000080052cb4                game_stat_seq
                0x0000000080053c4c                TOO_MUCH_nums
                0x00000000800548f0                TOO_MUCH_template
                0x00000000800551d0                stat_common_pct_template
                0x000000008005238c                stat_preplay
                0x000000008005316c                TIMExTRK_template
                0x0000000080052290                stat_carsel
                0x0000000080052e60                stat_erase
                0x0000000080054a0c                SELECT_numbers
                0x0000000080053a1c                TIMExCAR_template
                0x00000000800521a4                stat_attract
                0x00000000800546e4                stat_num_line
                0x0000000080052e00                ShowGameStats
                0x0000000080055418                MIC_chat
                0x00000000800520b0                init_game_stats
                0x0000000080052220                stat_trksel
                0x00000000800529ac                save_gamestats
                0x0000000080054d78                SELECT_numbers_line
                0x00000000800547e8                stat_avg_line
                0x00000000800523ec                stat_playgame
                0x000000008005339c                HOURxDAY_hist
                0x00000000800537c4                TIMExCAR_hist
                0x0000000080052a48                ChkGameStats
                0x0000000080052a14                load_gamestats
 .text          0x0000000080055470     0x32e0 obj/targets.o
                0x0000000080055b90                TargetCheck
                0x0000000080056864                ChangeFinishLine
                0x0000000080057d18                FogTrackNormal
                0x0000000080057bb4                FogTint
                0x0000000080058124                FogTrackTint
                0x0000000080055658                SetTargets
                0x0000000080055ac4                car_inside_target
                0x0000000080057c94                FogTrack
                0x00000000800582cc                MakeFogRamp
                0x0000000080057a08                SetFog
                0x0000000080057e6c                FogTrackTarget
                0x0000000080057a58                UpdateFog
                0x0000000080055470                SetupTargets
                0x0000000080057b44                FogOff
                0x0000000080055fb8                TargetAppearance
 .text          0x0000000080058750      0x400 obj/timint.o
                0x000000008005884c                TimInt
                0x0000000080058750                Init_TimInt
                0x0000000080058aa8                sync_net_time
                0x0000000080058ad8                update_net_time
                0x0000000080058a28                GetNetTime
                0x00000000800587d4                reset_IRQTIME
 .text          0x0000000080058b50     0x21e0 obj/tourney.o
                0x000000008005a254                TourneyNode
                0x000000008005a22c                TourneyOn
                0x000000008005a3f4                ParseTourneyFlags
                0x000000008005a270                ResetTourneyStatus
                0x0000000080058f30                ShowTourneySetup
                0x0000000080058b50                InitTourney
                0x0000000080058c40                LoadTourneySettings
                0x000000008005a2b4                CheckTourneyBox
                0x0000000080059bd0                HandleTourneySetup
 .text          0x000000008005ad30     0x5680 obj/visuals.o
                0x0000000080060148                PointInDir
                0x000000008005b588                SetupCar
                0x000000008005ccc8                StartFrame
                0x000000008005c258                RemoveEnvirons
                0x000000008005af4c                InitVisuals
                0x000000008005c2a8                UpdateVisuals
                0x000000008005c094                AddToEnvList
                0x000000008005fec8                InitChildObj
                0x000000008005d08c                ShowHood
                0x000000008005bddc                RemoveCar
                0x000000008005d134                StartBlast
                0x000000008005b074                SetCarReflection
                0x000000008005e4f4                InitSkids
                0x000000008005c16c                ReleaseEnviron
                0x000000008005ad30                InitDynamicObjs
                0x000000008005d2e0                Transpose3x3
                0x000000008005b2bc                CreateCar
                0x000000008005bc34                StartCar
                0x000000008005f650                StartSparks
                0x000000008005c014                GrabEnvEntry
                0x000000008005c0dc                UpdateEnvirons
                0x000000008005be58                StartEnvironment
                0x000000008005bcf8                PickCar
 .text          0x00000000800603b0      0x160 obj/communic.o
                0x00000000800603b0                mcommunication
                0x0000000080060434                mmodtodispuv
                0x0000000080060490                disptomoduv
 .text          0x0000000080060510      0x3e0 obj/controls.o
                0x0000000080060510                controls
                0x00000000800608cc                initcontrols
 .text          0x00000000800608f0      0x3b0 obj/d3math.o
                0x00000000800609ec                hypotsincos
                0x000000008006092c                invsqr
                0x0000000080060a44                shypotsincos
                0x00000000800608f0                xxsqrt
                0x0000000080060b58                mscos
                0x0000000080060af4                mssin
                0x0000000080060bbc                sincosptp
 .text          0x0000000080060ca0      0xe30 obj/drivetra.o
                0x000000008006112c                autoshift
                0x000000008006136c                engine
                0x0000000080061218                transmission
                0x00000000800612c8                upshift
                0x0000000080061650                enginetorque
                0x0000000080061a70                interp
                0x0000000080060ca0                drivetrain
                0x000000008006131c                downshift
                0x0000000080061240                find_best_gear
                0x0000000080060e18                whatslips
 .text          0x0000000080061ad0     0x1660 obj/drivsym.o
                0x00000000800620f8                forces
                0x0000000080062128                forces1
                0x0000000080062ae8                calcaa
                0x0000000080061f0c                antispin
                0x0000000080061ad0                syminit
                0x0000000080061eb4                regular
                0x0000000080062b1c                checkok
                0x000000008006283c                accelerations
                0x00000000800630fc                epveccopy
                0x0000000080063010                epacc
                0x0000000080062710                torques
                0x000000008006294c                positions
                0x000000008006306c                epvecacc
                0x000000008006287c                velocities
                0x0000000080061b10                sym
                0x0000000080062604                forces2
 .text          0x0000000080063130      0x9b0 obj/initiali.o
                0x00000000800638d8                steer_constants
                0x0000000080063130                modelinit
                0x0000000080063354                carsetup
                0x0000000080063944                copy_tire_info
                0x00000000800639c0                tire_constants
                0x0000000080063150                initialize
 .text          0x0000000080063ae0      0x8a0 obj/reckon.o
                0x0000000080063d6c                dead_reckon_posuv
                0x0000000080063f18                reckon_check
                0x0000000080063ae0                dead_reckon_all
                0x0000000080063b90                game_reckon_all
                0x00000000800640a8                update_reckon_base
                0x0000000080063ed8                zero_reckon_pcts
 .text          0x0000000080064380      0x5f0 obj/road.o
                0x0000000080064380                init_road
                0x00000000800648dc                vecinterp
                0x000000008006483c                uvinterp
                0x00000000800644f4                road
 .text          0x0000000080064970     0x1ed0 obj/stree.o
                0x0000000080066724                updownleaf
                0x0000000080064a44                tiresurf
                0x0000000080065308                COLL_test4
                0x000000008006638c                frwtobod
                0x0000000080066500                fvecinterp
                0x00000000800656c8                fSurfDist
                0x0000000080065280                COLL_force
                0x000000008006644c                surfpos
                0x0000000080065dc0                fPathInterp
                0x00000000800657a4                mInSurf
                0x00000000800663ec                fbodtorw
                0x00000000800667c0                downleaf
                0x00000000800655cc                COLL_test2
                0x0000000080066560                AlignSurf
                0x0000000080064970                init_stree
                0x0000000080064dd0                bodysurf
                0x0000000080066254                getSlopes
                0x0000000080065450                COLL_test0
                0x00000000800664a0                fuvinterp
                0x00000000800653ac                COLL_test3
                0x0000000080065a14                xfPathInterp
                0x0000000080065540                COLL_test1
 .text          0x0000000080066840      0xd10 obj/tires.o
                0x00000000800673d8                make_tire_road_uvs
                0x0000000080066840                calctireuv
                0x000000008006731c                calcalpha
                0x00000000800669c0                dotireforce
                0x0000000080066c34                frictioncircle
 .text          0x0000000080067550     0x1200 obj/unitvecs.o
                0x0000000080068004                rot
                0x0000000080068694                fupitch
                0x0000000080067550                bodtorw
                0x0000000080067f6c                matfix
                0x000000008006861c                froll
                0x0000000080068704                transpose
                0x00000000800686e0                fuyaw
                0x0000000080067c68                mkuv
                0x0000000080067824                srwtobod
                0x0000000080067d4c                makefpuvs
                0x0000000080067edc                matmul
                0x0000000080068120                urot
                0x0000000080067b24                urotuv
                0x0000000080068554                furot
                0x0000000080067760                sbodtorw
                0x00000000800675b4                rwtobod
                0x0000000080068304                mpitch
                0x00000000800676bc                irwtobod
                0x0000000080067e58                fmatcopy
                0x00000000800678e8                rotateuv
                0x00000000800679e0                rotuv
                0x0000000080068644                furoll
                0x00000000800686bc                fyaw
                0x0000000080067dd4                matcopy
                0x000000008006848c                frot
                0x00000000800683cc                myaw
                0x000000008006842c                muyaw
                0x00000000800682a0                muroll
                0x000000008006823c                mroll
                0x000000008006866c                fpitch
                0x0000000080067d90                makesuvs
                0x0000000080068368                mupitch
                0x0000000080067618                ibodtorw
 .text          0x0000000080068750      0x600 obj/vecmath.o
                0x00000000800688f8                vecsub
                0x0000000080068b60                sdirection
                0x00000000800688b8                vecadd
                0x0000000080068978                ivecsub
                0x0000000080068750                magnitude
                0x00000000800687c8                direction
                0x0000000080068a6c                veccopy
                0x00000000800689b8                crossprod
                0x0000000080068af4                invsmagnitude
                0x000000008006878c                invmagnitude
                0x0000000080068a3c                dotprod
                0x0000000080068c20                scrossprod
                0x0000000080068a94                smagnitude
                0x0000000080068820                scalmul
                0x0000000080068860                scaldiv
                0x0000000080068938                ivecadd
 .text          0x0000000080068d50      0x200 obj/world.o
                0x0000000080068ee8                LoadWorld
 .text          0x0000000080068f50     0x65a0 obj/anim.o
                0x000000008006e658                SetAnimObjParent
                0x000000008006f0c0                GetAnimObjIdxErr
                0x000000008006f33c                AnimTreeObjIgnorePre
                0x000000008006eb88                ResetAnimTree
                0x000000008006e7b8                RemoveAnimObjParent
                0x000000008006ebe4                ZmodAnimTree
                0x000000008006ee1c                BuildAnimTree
                0x000000008006edec                InsertAnimObj
                0x000000008006f1c8                GetAnimObjIdx
                0x000000008006e768                ReParentAnimObj
                0x000000008006f25c                GetPartIdx
                0x000000008006d940                AnimateObj
                0x000000008006f404                InitAnimInfo
                0x000000008006da60                AnimateTreeFrameInterp2
                0x000000008006f3e4                AnimTreeObj
                0x000000008006d77c                AnimSeqType
                0x000000008006e3e0                AnimateTree
                0x000000008006f1e8                GetAnimObjName
                0x000000008006daf8                AnimateTreeFrame
                0x000000008006f024                SetupAnimHeader
                0x000000008006e860                RemoveAnimObj
                0x000000008006e938                RemoveAnimTree
                0x000000008006e3b0                FreezeAnim
                0x000000008006e5e0                InitAnimObjs
                0x000000008006ec4c                NewAnimObj
                0x000000008006e990                AddAnimObj
                0x000000008006e0ec                AnimFixPos
                0x000000008006e3c8                UnFreezeAnim
                0x000000008006eb00                ResetAnimObj
                0x000000008006e26c                InitAnim
                0x000000008006e9e8                AddAnimTree
                0x000000008006d9dc                AnimateTreeFrameInterp
 .text          0x000000008006f4f0      0x4d0 obj/balloon.o
                0x000000008006f7b8                BalloonInit
                0x000000008006f974                BalloonMove
                0x000000008006f4f0                BalloonCollide
 .text          0x000000008006f9c0      0xf10 obj/blit.o
                0x0000000080070794                ReduceBlit
                0x000000008006fdf0                RenameBlit
                0x0000000080070168                GrowMessage
                0x0000000080070084                InitGrowMessage
                0x000000008006fb2c                DrawBlits
                0x00000000800706a8                MultiBlitMove
                0x000000008007071c                MultiBlitHide
                0x000000008006fe68                SelectBlit
                0x000000008006fc24                UpdateBlit
                0x00000000800704d4                NewMultiBlit
                0x0000000080070858                YScaleBlit
                0x000000008007049c                RemoveGrowMessage
                0x000000008007087c                YScaleBlits
                0x000000008007042c                IncGrowMessage
                0x000000008006fa2c                RemoveBlit
                0x0000000080070770                AttatchBlit
                0x000000008006fda4                NewBlitUnscaled
                0x000000008006fbc0                InitBlit
                0x000000008006f9c0                InitBlits
                0x000000008006fcbc                NewBlit
 .text          0x00000000800708d0      0xef0 obj/error.o
                0x0000000080070c64                FatalError
                0x0000000080070de4                FatalMsg
                0x000000008007166c                esectprint
                0x0000000080070c30                IncErrorColor
                0x00000000800708d0                __matherror
                0x0000000080070e60                InitError
                0x0000000080070d88                WarnMsg
                0x0000000080070ce0                Errorf
                0x0000000080070964                Error
                0x0000000080071170                InitErrorSectors
                0x0000000080070d34                FatalErrorf
 .text          0x00000000800717c0     0x24d0 obj/fmath.o
                0x0000000080071f20                RollUV
                0x0000000080071814                TransposeUV
                0x0000000080073a68                fqdist
                0x0000000080072b80                GetPitchYaw
                0x00000000800737ac                ExtractRYP
                0x00000000800722dc                BodyVector
                0x00000000800736e4                MulQuat
                0x0000000080072b18                GetYawPitch
                0x00000000800735b4                InterpQuats
                0x0000000080072494                WorldY
                0x0000000080072cfc                AddAngle
                0x0000000080071984                FixColumnUV
                0x0000000080072da0                FixAngle
                0x0000000080072e40                SubAngleP
                0x00000000800731d0                CreateRYPMatrix
                0x0000000080071894                ScaleUV
                0x0000000080073920                Randomize
                0x0000000080072010                MulMat
                0x0000000080071c48                WRollUV
                0x0000000080072ec8                AddAngleP
                0x0000000080072124                MulUVS
                0x0000000080072290                VectorIntegrity
                0x00000000800729f8                ProjectVector
                0x0000000080072be8                SubAngle
                0x00000000800724c4                WorldZ
                0x0000000080071a58                WYawUV
                0x0000000080072aac                Det3Vectors
                0x0000000080073508                NormalizeQuat
                0x0000000080071848                TransposeCopyUV
                0x0000000080071d40                YawUV
                0x0000000080073940                Random
                0x00000000800723e8                WorldVector
                0x00000000800717c0                CopyUV
                0x00000000800733c4                CreateQuatMat
                0x0000000080072630                SlowNormalVector
                0x0000000080072358                BodyX
                0x00000000800718f4                FixRowUV
                0x0000000080072964                NormalVector2D
                0x00000000800723b8                BodyZ
                0x00000000800721e0                NumberIntegrity
                0x0000000080071e30                PitchUV
                0x0000000080072fd4                CreatePYRMatrix
                0x0000000080072388                BodyY
                0x00000000800724f4                MulVecMat
                0x0000000080072f50                FixAngleP
                0x0000000080071b50                WPitchUV
                0x0000000080073990                RandInt
                0x00000000800719bc                RotateUV
                0x0000000080072464                WorldX
                0x0000000080072588                NormalVector
 .text          0x0000000080073c90      0xa80 obj/font.o
                0x0000000080074580                NewSFontBlitRightJPrint
                0x00000000800744f8                NewSFontBlitCenterPrintf
                0x0000000080073dac                RenameFontBlit
                0x0000000080073f84                InitSFontInfo
                0x0000000080074264                NewSFontBlitPrint
                0x0000000080074360                NewSFontBlitPrintf
                0x0000000080074024                NewSFontBlit
                0x00000000800743e8                NewSFontBlitCenterPrint
                0x0000000080073d1c                NewFontBlit
                0x0000000080073e44                RenameFontBlitChar
                0x0000000080074680                NewSFontBlitRightJPrintf
 .text          0x0000000080074710      0x1e0 obj/mem.o
                0x0000000080074710                AllocFile
                0x0000000080074774                AllocMem
                0x0000000080074870                LockMem
                0x0000000080074830                BytesFree
                0x00000000800748b8                InitMemHandler2
                0x0000000080074888                InitMemHandler
                0x0000000080074808                GetMemBase
                0x0000000080074848                FreeAllMem
                0x0000000080074858                FreeUnlockedMem
 .text          0x00000000800748f0      0x6a0 obj/timer.o
                0x0000000080074ee8                ResetTimer
                0x0000000080074df0                TimerIRQ1ms
                0x00000000800748f0                AlmostTimerOverflow
                0x0000000080074c18                PunchTimer
                0x00000000800749e0                TimerCalc
                0x0000000080074928                TimerResetNearOverflow
                0x0000000080074f38                InitializeTimerIRQ
                0x0000000080074d24                RestoreTimer
                0x0000000080074cec                SaveTimer
 .text          0x0000000080074f90      0x510 obj/strings.o
                0x0000000080074fc4                vsprintf
                0x00000000800752cc                xyechof
                0x000000008007522c                xyecho
                0x0000000080075294                xyechobigc
                0x00000000800751c0                xyprintfc
                0x000000008007539c                debug
                0x0000000080075118                xyprintc
                0x0000000080075430                gprintf
                0x000000008007509c                DoClearScreen
                0x0000000080074ff0                ClearOverlay
                0x00000000800750d4                InitStrings
                0x0000000080074f90                sprintf
                0x00000000800750e4                xyprint
                0x0000000080075330                xyechofc
                0x000000008007515c                xyprintf
                0x000000008007525c                xyechoc
                0x00000000800753ac                printUVS
 .text          0x00000000800754a0      0xa60 /home/boffo/usr7/rush/game/MB/zmb.a(mb_poly.o)
                0x0000000080075c54                ZOID_ShowPoly
                0x00000000800758f4                DrawPolyInsts
                0x0000000080075e9c                ZOID_InitPolys
                0x00000000800759e0                ZOID_UpdatePoly
                0x0000000080075cdc                ZOID_NewPoly
                0x0000000080075924                SetTexAspect
                0x0000000080075c7c                ZOID_ZmodPoly
                0x0000000080075e84                ZOID_RemovePoly
                0x000000008007579c                DrawPolyInstsType
                0x0000000080075c2c                ZOID_HidePoly
                0x0000000080075cac                ZOID_SetPolyType
                0x0000000080075cc4                ZOID_SetPolyInitZMod
                0x0000000080075c94                ZOID_SetPolyDeltaZMod
                0x0000000080075e24                IsPolyListFull
 .text          0x0000000080075f00      0x440 /home/boffo/usr7/rush/game/MB/zmb.a(mb_lights.o)
                0x0000000080075f5c                SetupLights
                0x0000000080076014                ZOID_LastLight
                0x0000000080076184                ZOID_AddLight
                0x0000000080075f00                ZOID_SetLightDir
                0x0000000080076304                ZOID_DeleteLights
                0x00000000800760c4                ZOID_SetupLight
                0x0000000080075fd4                ZOID_InitLights
 .text          0x0000000080076340      0xa70 /home/boffo/usr7/rush/game/MB/zmb.a(mb_main.o)
                0x0000000080076ae8                ZOID_EndFrame
                0x0000000080076d04                InitFrameGlobals
                0x0000000080076a80                gmtDepthComplexity
                0x0000000080076c7c                frame_stats
                0x0000000080076a1c                gmtSumDC
                0x0000000080076360                MB_DrawList
                0x000000008007668c                ZOID_DrawBlitsFirst
                0x000000008007669c                ZOID_Reset
                0x0000000080076340                grBufferSwap2
                0x0000000080076728                ZOID_PrintStats
                0x0000000080076538                MB_Init
 .text          0x0000000080076db0     0x1d20 /home/boffo/usr7/rush/game/MB/zmb.a(mb_objects.o)
                0x0000000080078a50                ZOID_SetObjectXlu
                0x0000000080077934                ZOID_InsertObject
                0x0000000080077788                ZOID_ObjParent
                0x00000000800788bc                ZOID_ZmodObject
                0x0000000080078434                ZOID_SetSortOffset
                0x0000000080077eb8                ZOID_AddObjectMat
                0x00000000800783ec                ZOID_SetReflect
                0x0000000080077474                do_obj_level
                0x00000000800787f8                ZOID_SetObjectFlags
                0x00000000800789b0                ZOID_ChangeXlu
                0x00000000800789b8                ZOID_SetObjectColor
                0x0000000080076f64                InitFrontFaceYaw
                0x00000000800788f0                ZOID_ZmodObjectAdd
                0x0000000080077d74                ZOID_AddObject
                0x00000000800784d4                ZOID_SetObjectParent
                0x000000008007831c                ZOID_UpdateObject
                0x0000000080076f10                QuickYawUV
                0x0000000080077840                ZOID_ObjPrevObj
                0x00000000800787c0                ZOID_ObjectFlags
                0x0000000080076dd0                InitSortObjects
                0x00000000800784ac                ZOID_GetObjectDef
                0x0000000080076de0                AddSortObject
                0x00000000800783d0                ZOID_UpdateObjectMat
                0x0000000080078470                ZOID_SetObjectDef
                0x00000000800778a8                ZOID_LastSibling
                0x00000000800782bc                ZOID_RemoveObject
                0x000000008007882c                ZOID_SetLocalAmbient
                0x0000000080078968                ZOID_InitObjects
                0x0000000080076e60                DrawSortObjects
                0x0000000080078934                ZOID_ObjectDrawPolyType
                0x0000000080077004                DrawObject
 .text          0x0000000080078ad0      0xb20 /home/boffo/usr7/rush/game/MB/zmb.a(mb_tex.o)
                0x0000000080078b08                longcpy8
                0x0000000080079224                CopyTexture
                0x0000000080079338                DownloadTextures
                0x00000000800791c0                TexSize
                0x0000000080078ad0                longcpy16
                0x0000000080078b44                ResetTextures
                0x0000000080078e00                SetBlendTextures
                0x0000000080078b84                SetTextureClamp
                0x0000000080078bd0                SetTexture
 .text          0x00000000800795f0      0x9c0 /home/boffo/usr7/rush/game/MB/zmb.a(mb_state.o)
                0x00000000800795f0                InitWindows
                0x0000000080079e88                ZOID_ZUnitScale
                0x0000000080079848                SetupObjLights
                0x0000000080079984                ZOID_SetWindowRegion
                0x0000000080079eb0                ZOID_DepthBufferFunc
                0x0000000080079e40                ZOID_SetBGColor
                0x0000000080079d88                ZOID_SetHaze
                0x0000000080079ef0                ZOID_ColorCombineFunc
                0x0000000080079f30                ZOID_TexCombineFunc
                0x0000000080079cf4                ZOID_SetAmbient
                0x0000000080079974                SetupCameraLights
                0x0000000080079a64                ZOID_InitializeWindow
                0x0000000080079e60                ZOID_ZmodAll
                0x0000000080079f70                ZOID_AlphaSource
                0x0000000080079bf0                ZOID_ZoomWindow
 .text          0x0000000080079fb0      0xab0 /home/boffo/usr7/rush/game/MB/zmb.a(mb_blit.o)
                0x000000008007a778                ZOID_SetBlitAltIdxs
                0x000000008007a580                ZOID_CropBlit
                0x000000008007a900                ZOID_RemoveBlit
                0x000000008007a998                ZOID_YScaleBlit
                0x0000000080079fb0                SetATex
                0x000000008007a540                ZOID_UpdateBlit
                0x000000008007a7dc                ZOID_AddBlit
                0x000000008007a9d0                ZOID_ColorBlit
                0x000000008007a438                DrawOverlayBlits
                0x000000008007a708                ZOID_SetBlitData
                0x000000008007a960                ZOID_FlipBlit
                0x000000008007aa0c                ZOID_InitBlits
 .text          0x000000008007aa60      0x310 /home/boffo/usr7/rush/game/MB/zmb.a(mb_struct.o)
                0x000000008007ad14                ZOID_GetRomTex
                0x000000008007ab34                ZOID_ChangeTexture
                0x000000008007aacc                ZOID_SetRomTexture
                0x000000008007aa60                ZOID_GetRomTexture
                0x000000008007ac64                ZOID_CopyTexture
                0x000000008007abfc                ZOID_PolyTexture
                0x000000008007ad60                ZOID_ColorPoly
 .text          0x000000008007ad70     0x1620 /home/boffo/usr7/rush/game/MB/zmb.a(mb_model.o)
                0x000000008007bae4                MBOX_LoadModelFixed
                0x000000008007c120                MBOX_SetMinTexBase
                0x000000008007b7f4                MBOX_ResetModels
                0x000000008007bfa0                MBOX_LoadMovie
                0x000000008007ba88                MBOX_CopyRomTex
                0x000000008007b324                MBOX_FindObject
                0x000000008007bfd4                MBOX_MovieFrame
                0x000000008007b42c                MBOX_GetObjectAnimInfo
                0x000000008007b594                MBOX_FindTexture_Sub
                0x000000008007b4cc                MBOX_GetTextureName
                0x000000008007ae70                MBOX_FindObject_Err
                0x000000008007b0ac                MBOX_FindObject_Sub
                0x000000008007adcc                MBOX_GetObjectRadius
                0x000000008007b794                MBOX_FindTexture_Err
                0x000000008007ba20                MBOX_CloneRomTex
                0x000000008007ad70                MBOX_GetObjectName
                0x000000008007b880                MBOX_ResetUnlockedModels
                0x000000008007bf70                MBOX_LoadModel
                0x000000008007c110                MBOX_GetTexBase
                0x000000008007bdc0                MBOX_LoadModelCheck
                0x000000008007b530                MBOX_GetTextureInfo
                0x000000008007c144                PageLoadTextures
                0x000000008007b7c4                MBOX_FindTexture
                0x000000008007b944                MBOX_LockModels
                0x000000008007b344                MBOX_ReallyFindObject
 .text          0x000000008007c390     0x1180 /home/boffo/usr7/rush/game/MB/zmb.a(mb_util.o)
                0x000000008007c72c                MBOX_ObjectLOD
                0x000000008007d358                MBOX_ScreenDump
                0x000000008007cc6c                MBOX_ObjectAnimation
                0x000000008007cb9c                MBOX_SetZWrite
                0x000000008007c704                MBOX_ObjectVisible
                0x000000008007d060                MBOX_WindowTo3D
                0x000000008007d148                MBOX_SetAmbientLevel
                0x000000008007cc04                MBOX_SetZCompare
                0x000000008007cdc0                MBOX_SetWindow
                0x000000008007c7d4                MBOX_GetMat
                0x000000008007c6b0                MBOX_UpdateObject
                0x000000008007c478                MYguFogGenerateExp
                0x000000008007c7a8                MBOX_GetNext
                0x000000008007d20c                MBOX_DeleteLights
                0x000000008007d258                MBOX_AddInfiniteLight
                0x000000008007d2a8                GetScreen
                0x000000008007c6e0                MBOX_RemoveObject
                0x000000008007cd70                MBOX_UpdateCamera
                0x000000008007ca44                MBOX_ChangeXlu
                0x000000008007ce8c                MBOX_ProjectWindow
                0x000000008007d198                MBOX_SetBGColor
                0x000000008007d288                MBOX_UpdateLight
                0x000000008007cd9c                MBOX_GetWindow
                0x000000008007c914                MBOX_ShowObject
                0x000000008007c654                MBOX_NewObjectMat
                0x000000008007c434                MYguFogTableIndexToW
                0x000000008007d168                MBOX_SetAmbientColor
                0x000000008007c5f0                MBOX_NewObject
                0x000000008007c750                MBOX_GetMBIndex
                0x000000008007c3ec                safe_expf
                0x000000008007c800                MBOX_HideObject
                0x000000008007d22c                MBOX_AddPointLight
                0x000000008007d490                MBOX_MovieDump
                0x000000008007c398                GetObjVerts
                0x000000008007c77c                MBOX_GetChild
 .text          0x000000008007d510      0x4c0 /home/boffo/usr7/rush/game/MB/zmb.a(mb_camera.o)
                0x000000008007d510                MB_UpdateCamera
                0x000000008007d8f4                ZOID_UpdateCamera
 .text          0x000000008007d9d0      0x5e0 /home/boffo/usr7/rush/game/MB/zmb.a(mb_math.o)
                0x000000008007ddb4                setunit4x3
                0x000000008007d9d0                init_sqrtinvtab
                0x000000008007de1c                concat4x3
                0x000000008007dc1c                inv_sqrtf
                0x000000008007dd74                inv_dist3
 .text          0x000000008007dfb0     0x1c50 /home/boffo/usr7/rush/game/MB/zmb.a(mb_simpleclip.o)
                0x000000008007fa68                objectClipped
                0x000000008007e248                doBlendClipTri
                0x000000008007f898                BlendClipEdge
                0x000000008007e4e0                SimpleClipTri
                0x000000008007f718                SimpleClipEdge
                0x000000008007edfc                BlendClipTri
                0x000000008007dfb0                doSimpleClipTri
 .text          0x000000008007fc00     0x1f60 /home/boffo/usr7/rush/game/MB/zmb.a(mb_simple.o)
                0x0000000080080944                DoReflect
                0x0000000080080d84                DoCarWindow
                0x000000008008128c                DoCarBody
                0x000000008007fc78                do_polys
                0x000000008007fe44                do_reflect_polys
                0x0000000080081808                DrawTriBlend
                0x0000000080080a50                CloudReflect
                0x000000008007fc00                CheckFIFO
                0x000000008008000c                do_reflect_blend_polys
                0x0000000080080588                DoXfrmVertsNormals
                0x0000000080080a74                DoXfrmVertsReflect
                0x00000000800802d0                DoXfrmVerts
 .text          0x0000000080081b60      0xf60 /home/boffo/usr7/rush/game/OS/libos.a(phx_shims.o)
                0x0000000080081e18                exit_to_game
                0x0000000080081c64                __main
                0x0000000080081e60                prc_timer_ints
                0x00000000800821b8                prc_get_astlvl
                0x0000000080082aac                getenv
                0x00000000800823b4                prc_get_actlvl
                0x0000000080082a2c                pktInit
                0x0000000080081e48                prc_timer_ptr
                0x0000000080081f74                cputimerint
                0x0000000080081e6c                prc_timer_jobs
                0x00000000800820c8                process_action_q
                0x0000000080082088                prc_q_action
                0x0000000080081e40                prc_cache_init
                0x0000000080082058                prc_swint0
                0x0000000080081bd0                prc_timer_rate
                0x00000000800829f4                pktQueSend
                0x00000000800829bc                pktQueRecv
                0x0000000080081d88                prc_reboot
                0x0000000080081c6c                BootUp
                0x0000000080082450                interrupt_handler
                0x0000000080081fac                prc_add_q
                0x0000000080082398                prc_get_exception_time
                0x0000000080082718                get_pm_msg
                0x00000000800821c4                prc_q_ast
                0x0000000080082070                prc_swint1
                0x0000000080081d64                stub_start
                0x000000008008224c                process_ast_q
                0x0000000080082960                eer_write_byte
                0x0000000080081b60                prc_mod_latch
                0x0000000080082a6c                pktPoll
                0x0000000080082830                exception_handler
 .text          0x0000000080082ac0      0xe00 /home/boffo/usr7/rush/game/OS/libos.a(idtc4000.o)
                0x0000000080083008                clean_dcache_indexed
                0x0000000080083730                resettlb
                0x0000000080082ba8                init_cache
                0x0000000080083110                clean_dcache_nowrite_indexed
                0x0000000080083598                set_tlbpid
                0x00000000800830c0                clean_dcache_nowrite
                0x0000000080082f18                clear_cache
                0x0000000080082cd0                flush_cache
                0x0000000080083258                clean_icache_indexed
                0x0000000080082ac0                size_cache
                0x00000000800834e8                ret_tlbhi
                0x0000000080082fb8                clean_dcache
                0x0000000080083440                ret_pagemask
                0x0000000080082e10                flush_cache_nowrite
                0x00000000800837e8                map_tlb4000
                0x00000000800834d8                ret_tlbwired
                0x00000000800833a8                ret_tlblo1
                0x0000000080083208                clean_icache
                0x0000000080083580                ret_tlbpid
                0x0000000080082b50                config_cache
                0x0000000080082db0                flush_dcache
                0x00000000800835b0                tlbprobe
                0x0000000080083310                ret_tlblo0
 .text          0x00000000800838c0      0x620 /home/boffo/usr7/rush/game/OS/libos.a(fexcp.o)
                0x0000000080083ea0                init_fpu
 .text          0x0000000080083ee0      0x1d0 /home/boffo/usr7/rush/game/OS/libos.a(memcpyrxk.o)
                0x0000000080083ee0                memcpy
                0x0000000080083fc0                memset
 .text          0x00000000800840b0      0x620 /home/boffo/usr7/rush/game/OS/libos.a(phx_time.o)
                0x00000000800840b0                tq_maint
                0x0000000080084280                tq_del
                0x0000000080084160                tq_ins
                0x000000008008431c                sho_delay_q
                0x00000000800845a4                time_test
 .text          0x00000000800846d0      0x3d0 /home/boffo/usr7/rush/game/OS/libos.a(dispatch.o)
                0x0000000080084a00                prc_init_vecs
                0x0000000080084804                prc_set_vec
 .text          0x0000000080084aa0      0xf50 /home/boffo/usr7/rush/game/OS/libos.a(selftest.o)
                0x0000000080085290                ROMTest
                0x0000000080085914                st_getenv
                0x0000000080084e0c                SelfTest
                0x0000000080084cfc                ExitInst
                0x0000000080084b98                st_insn
                0x0000000080084b6c                st_bottom
                0x0000000080085330                st_menu
                0x0000000080085764                st_frame
 .text          0x00000000800859f0      0x640 /home/boffo/usr7/rush/game/OS/libos.a(pm.o)
                0x0000000080085ab0                pm_dump_param
                0x00000000800859f0                pm_validate
                0x0000000080085f98                wlc
                0x0000000080085ec4                pm_dump
 .text          0x0000000080086030     0x20f0 /home/boffo/usr7/rush/game/OS/libos.a(eedrive.o)
                0x0000000080087140                eer_clrhist
                0x0000000080086370                eer_hwt
                0x0000000080087008                eer_puth
                0x0000000080087a8c                eer_tally_hist
                0x00000000800867dc                eer_gets
                0x0000000080087b18                eer_user_rd
                0x0000000080087b90                eer_user_wrt
                0x0000000080087bd8                eer_user_free
                0x00000000800863a0                eer_busy
                0x00000000800872d8                eer_hist_title
                0x0000000080086418                eer_init
                0x00000000800862a0                eer_action
                0x0000000080087c34                eer_user_refresh
                0x0000000080086a0c                eer_incs
                0x00000000800871cc                eer_bumph
                0x0000000080086fc4                eer_geth
                0x0000000080086a60                eer_p_incs
                0x0000000080087c2c                eer_user_purge
                0x00000000800868b4                eer_puts
                0x0000000080086bf8                eer_hstw
                0x0000000080086d20                eer_rank
                0x0000000080087664                eer_hist_line
                0x0000000080087bcc                eer_user_flush
                0x0000000080086b4c                eer_hstr
 .text          0x0000000080088120      0x280 /home/boffo/usr7/rush/game/OS/libos.a(cdec_hex.o)
                0x00000000800881fc                utl_chex
                0x0000000080088274                utl_cdec
                0x0000000080088120                __ultodec
 .text          0x00000000800883a0       0xc0 /home/boffo/usr7/rush/game/OS/libos.a(random.o)
                0x00000000800883b0                rand
                0x00000000800883a0                srand
 .text          0x0000000080088460     0x1370 /home/boffo/usr7/rush/game/OS/libos.a(stats.o)
                0x0000000080089710                CoinOptions
                0x0000000080089030                ShowStats
                0x00000000800897a8                GetGameOptions
                0x0000000080089788                PutGameOptions
                0x00000000800896b0                eer_opt
                0x0000000080088688                eer_stop
                0x00000000800886b8                eer_end
                0x0000000080089650                GameStats
                0x000000008008967c                eer_stats
                0x000000008008976c                GetCoinOptions
                0x000000008008865c                eer_start
                0x0000000080088e6c                avgtim
                0x00000000800884e8                eer_play
 .text          0x00000000800897d0      0xce0 /home/boffo/usr7/rush/game/OS/libos.a(mallocr.o)
                0x0000000080089988                guts_free_r
                0x0000000080089ad8                guts_malloc_r
                0x000000008008a45c                heap_remaining
                0x000000008008a128                malloc_init
                0x0000000080089e68                guts_calloc_r
                0x000000008008a33c                _sbrk_r
                0x0000000080089ee0                _realloc_r
                0x000000008008a440                _reset_malloc_r
                0x000000008008a384                _get_free_pool_size_r
                0x0000000080089f00                _free_r
                0x000000008008a480                reset_malloc
                0x0000000080089f58                prc_extend_bss
                0x0000000080089ec0                _malloc_r
                0x000000008008a3fc                _heap_remaining_r
                0x0000000080089c08                guts_realloc_r
                0x000000008008a3a4                _heap_size_r
 .text          0x000000008008a4b0     0x1500 /home/boffo/usr7/rush/game/OS/libos.a(audio.o)
                0x000000008008b298                aud_q_dump
                0x000000008008aa5c                aud_q_mput
                0x000000008008b0d4                aud_f_put
                0x000000008008b3f8                aud_getErrorCount
                0x000000008008b36c                aud_pm
                0x000000008008acd8                aud_setvol
                0x000000008008a4b0                aud_cmd
                0x000000008008a7f0                aud_q_put
                0x000000008008aa00                aud_qlen
                0x000000008008aaec                aud_put
                0x000000008008aef4                aud_irq
                0x000000008008ab08                aud_poll
                0x000000008008a7a8                aud_q_get
                0x000000008008b17c                aud_excw
                0x000000008008a8dc                aud_mput
                0x000000008008a698                aud_init
                0x000000008008a570                aud_reset
                0x000000008008b584                aud_dyn_adjvol
 .text          0x000000008008b9b0     0x1430 /home/boffo/usr7/rush/game/OS/libos.a(phx_coin.o)
                0x000000008008c424                cn_debit
                0x000000008008ba58                cn_click_counter
                0x000000008008c5cc                cn_next
                0x000000008008c67c                cn_total_creds
                0x000000008008b9b0                cn_coin_counters
                0x000000008008ccf8                cn_config
                0x000000008008bdb0                cn_check
                0x000000008008c10c                cn_discount
                0x000000008008c2d8                cn_continues
                0x000000008008bad8                erc_vbex
                0x000000008008c180                cn_credits
                0x000000008008c560                cn_chkcoin
                0x000000008008bd20                cn_add_coin
                0x000000008008bae0                cn_irq
                0x000000008008c4ac                cn_dbcoin
                0x000000008008c148                cn_price
                0x000000008008c668                cn_zap_bonus
                0x000000008008bc44                cn_total_coins
                0x000000008008c058                cn_bong
                0x000000008008c084                cn_init
                0x000000008008c6a4                cn_coins
 .text          0x000000008008cde0     0x1150 /home/boffo/usr7/rush/game/OS/libos.a(pots.o)
                0x000000008008d83c                pot_parabolic
                0x000000008008d9dc                pot_raw
                0x000000008008d260                pot_init
                0x000000008008dab8                pot_save
                0x000000008008d5e0                VBIReadPots
                0x000000008008d994                JoyPot
                0x000000008008d664                pot_linear
                0x000000008008d540                pot_age
                0x000000008008d65c                PotsToSwitches
                0x000000008008cdf4                pot_timer
                0x000000008008cde0                ReadPot
                0x000000008008de38                pot_display
 .text          0x000000008008df30      0x7d0 /home/boffo/usr7/rush/game/OS/libos.a(gamedefs.o)
                0x000000008008e5c8                default_values
                0x000000008008df70                GUTS_finds_car_color
                0x000000008008e5c0                vcr
 .text          0x000000008008e700      0x880 /home/boffo/usr7/rush/game/OS/libos.a(qio_rmt.o)
                0x000000008008ee1c                rmt_init
 .text          0x000000008008ef80     0x1e90 /home/boffo/usr7/rush/game/OS/libos.a(sst_vid.o)
                0x000000008008f338                timer_pll
                0x0000000080090cf0                sst_options
                0x00000000800900b0                purity
                0x000000008008f5e0                prc_delay
                0x000000008008ef80                vid_set_vb
                0x000000008008feb0                vid_clear
                0x000000008008f484                sst_prc_delay
                0x0000000080090d5c                vid_waitvb
                0x000000008008fb48                vid_init
                0x000000008008fab0                sst_reset
                0x0000000080090cc4                st_mon_group
                0x000000008008ff30                lmul_div
                0x000000008008efa0                get_timer_pll
                0x000000008008efac                vid_fields
                0x0000000080090d30                sst_restore_defaults
                0x000000008008f454                prc_delay_options
                0x000000008009001c                setancolors
                0x000000008008f644                prc_delay0
                0x00000000800902e8                converge
                0x000000008008ff28                stamp_atxy
                0x000000008008f660                st_vblank
                0x000000008008f66c                grErrorCallback
                0x000000008008fbb8                bm_rect
                0x000000008008fe3c                vid_clr_alphas
                0x000000008008efc4                sst_bufswap
                0x000000008008f46c                vid_set_bg
 .text          0x0000000080090e10     0x11a0 /home/boffo/usr7/rush/game/OS/libos.a(sst_text.o)
                0x0000000080091184                txt_decnum
                0x000000008009127c                txt_chexnum
                0x0000000080090e4c                txt_setpos
                0x0000000080090e90                txt_clr_wid
                0x0000000080091308                txt_mod_pal
                0x00000000800912b4                SetANPal
                0x00000000800919c0                st_font
                0x000000008009121c                txt_hexnum
                0x0000000080091d7c                sst_text2fb
                0x0000000080091f0c                txt_select
                0x0000000080090e10                txt_vsptr
                0x00000000800910ec                txt_width
                0x0000000080091028                txt_clr_str
                0x00000000800913ac                txt_str
                0x0000000080091000                txt_cstr
                0x0000000080091e08                sst_tclr
                0x0000000080091894                txt_stamp
                0x00000000800911e4                txt_cdecnum
                0x0000000080091a58                sst_text2fb_ptr
                0x00000000800919cc                sst_text_init
                0x0000000080091168                txt_height
 .text          0x0000000080091fb0     0x14c0 /home/boffo/usr7/rush/game/OS/libos.a(sst_an.o)
                0x0000000080093190                _an_ball
                0x0000000080093190                an_ball
                0x0000000080092c90                _an_big_a_tl
                0x0000000080091fb0                _an_stamps
                0x0000000080093180                _an_dot
                0x0000000080093460                an_end
                0x0000000080092820                an_mod_a
                0x0000000080092c90                an_big_a_tl
                0x0000000080092a10                an_big_0_tl
                0x0000000080092020                _an_blk_a
                0x0000000080092420                an_norm_a
                0x0000000080092a10                _an_big_0_tl
                0x0000000080093180                an_dot
                0x0000000080092420                _an_norm_a
                0x0000000080092020                an_blk_a
                0x0000000080092820                _an_mod_a
                0x0000000080091fb0                an_stamps
 .text          0x0000000080093470      0x210 /home/boffo/usr7/rush/game/OS/libos.a(phx_stubs.o)
                0x000000008009359c                hdw_init
                0x0000000080093470                breakpoint
                0x00000000800934d8                init_3dfx_pci
                0x000000008009347c                promexit
                0x0000000080093494                matherr
                0x000000008009349c                time
                0x00000000800934c4                shims_info
                0x0000000080093488                exit
                0x00000000800934ac                shims_printf
                0x0000000080093594                reent_init
 .text          0x0000000080093680     0x1790 /home/boffo/usr7/rush/game/OS/libos.a(ram_test.o)
                0x0000000080094de0                RAM_group
 .text          0x0000000080094e10      0x840 /home/boffo/usr7/rush/game/OS/libos.a(mem_test.o)
                0x00000000800953e4                bram_test
                0x00000000800955b0                rom_cksum
                0x0000000080094e18                f_ram_test
                0x0000000080095410                q_ram_test
 .text          0x0000000080095650      0x750 /home/boffo/usr7/rush/game/OS/libos.a(scope.o)
                0x0000000080095d6c                scope_loops
 .text          0x0000000080095da0      0x530 /home/boffo/usr7/rush/game/OS/libos.a(entry.o)
                0x0000000080095edc                utl_enter
 .text          0x00000000800962d0      0xc90 /home/boffo/usr7/rush/game/OS/libos.a(menus.o)
                0x0000000080096ecc                factory_setting
                0x00000000800962d0                st_dispmenu
                0x0000000080096a3c                st_optmenu
                0x0000000080096a30                st_opt_callback
                0x0000000080096dbc                DoOptions
 .text          0x0000000080096f60      0xd20 /home/boffo/usr7/rush/game/OS/libos.a(swt_test.o)
                0x0000000080096f60                st_joy_disp
                0x0000000080097ba8                ctl_read_sw
                0x0000000080097c08                ctl_read_debug
                0x00000000800970a0                ctl_mod_latch
                0x0000000080097ac8                ctl_upd_sw
                0x0000000080097b8c                ctl_autorepeat
                0x00000000800971bc                force_test
                0x0000000080097170                SetForce
                0x0000000080097324                SwitchTest
                0x000000008009703c                lma_init
 .text          0x0000000080097c80     0x1c00 /home/boffo/usr7/rush/game/OS/libos.a(snd_test.o)
                0x00000000800996d8                quad_tst
                0x00000000800989ac                aud_adj_volume
                0x0000000080098bec                snd_test
                0x00000000800984c0                adj_vol
 .text          0x0000000080099880     0x2620 /home/boffo/usr7/rush/game/OS/libos.a(qio.o)
                0x000000008009b000                qio_rewdir
                0x000000008009a04c                qio_lookupdvc
                0x0000000080099f68                qio_init
                0x000000008009bc48                ioctl
                0x000000008009ae78                qio_opendir
                0x000000008009a75c                qio_rename
                0x000000008009b134                qio_telldir
                0x0000000080099b20                qio_install_dvc
                0x0000000080099d90                qio_freeioq
                0x000000008009be20                isatty
                0x000000008009a388                qio_writewpos
                0x0000000080099aa8                qio_file2fd
                0x000000008009a520                qio_open
                0x0000000080099a40                qio_fd2file
                0x0000000080099e00                qio_freefile
                0x000000008009a138                qio_fstat
                0x000000008009ab28                qio_isatty
                0x000000008009b9a8                lseek
                0x0000000080099880                qio_complete
                0x000000008009b084                qio_closedir
                0x000000008009b6e4                rename
                0x000000008009abb8                qio_lseek
                0x000000008009bb68                write
                0x000000008009b27c                qio_freemutex
                0x000000008009bd28                fstat
                0x000000008009a894                qio_openspc
                0x000000008009b10c                qio_seekdir
                0x000000008009ba88                read
                0x000000008009b5fc                unlink
                0x000000008009b15c                qio_getmutex
                0x0000000080099c04                qio_getioq_ptr
                0x000000008009a2c4                qio_read
                0x0000000080099cf8                qio_getioq
                0x000000008009a1f0                qio_readwpos
                0x000000008009a648                qio_delete
                0x000000008009ad8c                qio_fsync
                0x000000008009af78                qio_readdir
                0x000000008009a9c8                qio_ioctl
                0x000000008009b4c0                stat
                0x000000008009a45c                qio_write
                0x000000008009b328                qio_cancel
                0x0000000080099d1c                qio_freeioq_ptr
                0x000000008009ac60                qio_mkdir
                0x000000008009b7f0                open
                0x000000008009aa74                qio_close
                0x000000008009b8ec                close
                0x000000008009b3b8                qio_cleanup
 .text          0x000000008009bea0     0x4080 /home/boffo/usr7/rush/game/OS/libos.a(fsys.o)
                0x000000008009bedc                fsys_getqio
                0x000000008009d784                fsys_mountw
                0x000000008009bf00                fsys_freeqio
                0x000000008009ed90                fsys_test
                0x000000008009ea14                fsys_init
                0x000000008009cef4                fsys_qmount
 .text          0x000000008009ff20      0x180 /home/boffo/usr7/rush/game/OS/libos.a(qio_errs.o)
                0x000000008009ff20                qio_errmsg
 .text          0x00000000800a00a0     0x2d50 /home/boffo/usr7/rush/game/OS/libos.a(phx_ide.o)
                0x00000000800a2088                ide_squawk
                0x00000000800a2a7c                NSC415_SetRegValues
                0x00000000800a298c                ide_test
                0x00000000800a1dbc                ide_choose_drv
                0x00000000800a2bf4                NSC415_InitRegValues
                0x00000000800a20ac                ide_unsquawk
                0x00000000800a29b8                NSC415_GetCurrentRegs
                0x00000000800a19c0                ide_init
 .text          0x00000000800a2df0      0x940 /home/boffo/usr7/rush/game/OS/libos.a(phx_hdshims.o)
                0x00000000800a34e4                read_file_section
                0x00000000800a2df0                WrFileSegment
                0x00000000800a2e00                Read_Sectors
                0x00000000800a2e28                ForceMoleToStop
                0x00000000800a33e0                WrFile
                0x00000000800a2e10                InitMole
                0x00000000800a2e18                AllowMoleInGame
                0x00000000800a3288                RdFile
                0x00000000800a2e30                HDStart
                0x00000000800a2e20                ChangeToMole
                0x00000000800a2e08                Write_Sectors
                0x00000000800a2df8                ide_check_devstat
 .text          0x00000000800a3730     0x1120 /home/boffo/usr7/rush/game/OS/libos.a(net_test.o)
                0x00000000800a4474                net_test
                0x00000000800a3b6c                net_init
 .text          0x00000000800a4850       0x30 /home/boffo/usr7/rush/game/OS/libos.a(smc_putstr.o)
                0x00000000800a4850                smc_putstr
 .text          0x00000000800a4880      0xd70 /home/boffo/usr7/rush/game/OS/libos.a(smc_main.o)
                0x00000000800a4fe4                SMC_Set_Int_Mask
                0x00000000800a5390                SMC_Add_Sigs
                0x00000000800a4b50                SMC_Reset
                0x00000000800a4f3c                SMC_Set_Loopback
                0x00000000800a4d44                SMC_Setup
                0x00000000800a5428                SMC_Remove_Sigs
                0x00000000800a4880                SMC_Initialize
                0x00000000800a54b4                SMC_Set_MC_Mask
                0x00000000800a5334                SMC_Is_Open
                0x00000000800a4be8                SMC_Reset_Chip
                0x00000000800a4b80                SMC_Init_Network_ID
                0x00000000800a5104                SMC_Open
                0x00000000800a5290                SMC_Close
 .text          0x00000000800a55f0      0xb40 /home/boffo/usr7/rush/game/OS/libos.a(net_link.o)
                0x00000000800a5bcc                Net_Control
                0x00000000800a57f0                Net_Close_Interface
                0x00000000800a6084                Net_Relinquish
                0x00000000800a55f0                Net_Initialize
                0x00000000800a5770                Net_Open_Interface
                0x00000000800a5e5c                Net_Aquire_MC
                0x00000000800a5ad4                Net_Get_Buffer
                0x00000000800a5b90                Net_Free_Buffer
                0x00000000800a580c                Net_Send_Packet
                0x00000000800a5f10                Net_Release_MC
                0x00000000800a6024                Net_Restore_MC
 .text          0x00000000800a6130      0xa40 /home/boffo/usr7/rush/game/OS/libos.a(smc_tx.o)
                0x00000000800a6718                SMC_TX_Enqueue
                0x00000000800a686c                SMC_Copy_Net_Buffer
                0x00000000800a65b8                SMCP_TX_Enqueue
                0x00000000800a6258                SMCP_Alloc_Buff
                0x00000000800a6130                SMC_Init_Header
                0x00000000800a6410                SMC_Alloc_Buff
                0x00000000800a69b0                SMC_Initiate_Next_Allocate
                0x00000000800a6ac8                SMC_Chip_Pkt_Rls
 .text          0x00000000800a6b70      0x5f0 /home/boffo/usr7/rush/game/OS/libos.a(smc_intv.o)
                0x00000000800a6b70                SMC_Interrupt_Vector0
                0x00000000800a6c0c                Net_Interrupt_Handler
 .text          0x00000000800a7160      0x980 /home/boffo/usr7/rush/game/OS/libos.a(smc_dma.o)
                0x00000000800a74b8                Galileo_Initiate_Next_SMC_DMA
                0x00000000800a77d8                DMA_Enqueue
                0x00000000800a72b0                Galileo_Interrupt_Handler
                0x00000000800a7a1c                SMC_Start_DMA
                0x00000000800a773c                DMA_Dequeue
                0x00000000800a7160                SMC_DMA_Initialize
                0x00000000800a725c                Galileo_Interrupt_Vector
 .text          0x00000000800a7ae0      0x260 /home/boffo/usr7/rush/game/OS/libos.a(wms_ioasic.o)
                0x00000000800a7b2c                UnLock
 .text          0x00000000800a7d40      0x370 /home/boffo/usr7/rush/game/OS/libos.a(wms_gt64010.o)
                0x00000000800a7d94                get_pci_config_reg
                0x00000000800a8028                get_pci_slot_configuration_info
                0x00000000800a7fe8                gt64010_init
                0x00000000800a8080                disable_dma
                0x00000000800a7eb0                put_pci_config_reg
 .text          0x00000000800a80b0      0x120 /home/boffo/usr7/rush/game/OS/libos.a(wms_pciio.o)
                0x00000000800a8134                get_sst_addr
                0x00000000800a80b0                get_device_number
                0x00000000800a813c                pciMapCardMulti
                0x00000000800a8118                get_sst_device_number
 .text          0x00000000800a81d0      0x8d0 /home/boffo/usr7/rush/game/OS/libos.a(picfuncs.o)
                0x00000000800a8948                GetMFG
                0x00000000800a85c0                WritePICNVRAM
                0x00000000800a854c                ReadPICNVRAM
                0x00000000800a8498                GetPICDateTime
                0x00000000800a842c                SetPICDateTime
 .text          0x00000000800a8aa0      0x9e0 /home/boffo/usr7/rush/game/OS/libos.a(qio_uart.o)
                0x00000000800a945c                qio_uart_init
 .text          0x00000000800a9480      0x400 /home/boffo/usr7/rush/game/OS/libos.a(phx_rtc.o)
                0x00000000800a976c                rtc_set_clock
                0x00000000800a9480                rtc_display
 .text          0x00000000800a9880      0x420 /home/boffo/usr7/rush/game/OS/libos.a(nsc_pcishim.o)
                0x00000000800a9c60                inb
                0x00000000800a9a68                set_timer
                0x00000000800a9a20                PCI_WriteConfigDword
                0x00000000800a9a40                get_timer
                0x00000000800a9ba4                outb_p
                0x00000000800a9aec                delay_10ms
                0x00000000800a98f8                PCI_ReadConfigDWord
                0x00000000800a9b6c                outsw
                0x00000000800a9be0                outb
                0x00000000800a9880                PCI_ReadConfigByte
                0x00000000800a9918                PCI_WriteConfigByte
                0x00000000800a98bc                PCI_ReadConfigWord
                0x00000000800a999c                PCI_WriteConfigWord
                0x00000000800a9b34                insw
                0x00000000800a9bc0                inb_p
 .text          0x00000000800a9ca0      0x8e0 /home/boffo/usr7/rush/game/OS/libos.a(smc_rx.o)
                0x00000000800aa468                SMC_Load_Net_Buffer
                0x00000000800a9ec4                SMC_RXError
                0x00000000800a9ca0                SMC_RXHndlr
 .text          0x00000000800aa580      0x7f0 /usr/local/GUTS/3dfx/glide-rush2.7/libglide.a(gamma.o)
                0x00000000800aa970                sst1InitGamma
                0x00000000800aa580                AGCGamma
                0x00000000800aa9d4                sst1InitGammaRGB
 .text          0x00000000800aad70     0x1390 /usr/local/GUTS/3dfx/glide-rush2.7/libglide.a(gglide.o)
                0x00000000800ab01c                grAlphaBlendFunction
                0x00000000800abe08                grGlideGetState
                0x00000000800abb40                grDisableAllEffects
                0x00000000800aaf54                _grSwizzleColor
                0x00000000800abcd4                grFogTable
                0x00000000800abb94                grDitherMode
                0x00000000800abda4                grGlideInit
                0x00000000800abf1c                grGlideSetState
                0x00000000800ab494                grBufferSwap
                0x00000000800ab0b8                grAlphaCombine
                0x00000000800ab894                _grColorCombineDelta0Mode
                0x00000000800ab5cc                grChromakeyValue
                0x00000000800abaf4                grDepthMask
                0x00000000800abe64                grHints
                0x00000000800ab9e0                grCullMode
                0x00000000800abc90                grFogColorValue
                0x00000000800ab9fc                grDepthBiasLevel
                0x00000000800ac0e8                grGlideShamelessPlug
                0x00000000800ab358                grBufferClear
                0x00000000800ab9a0                grConstantColorValue4
                0x00000000800ab57c                grChromakeyMode
                0x00000000800ab2c8                grAlphaTestFunction
                0x00000000800ab27c                grAlphaControlsITRGBLighting
                0x00000000800ab610                grClipWindow
                0x00000000800ab560                grBufferNumPending
                0x00000000800abdbc                grGlideShutdown
                0x00000000800aba7c                grDepthBufferMode
                0x00000000800ab314                grAlphaTestReferenceValue
                0x00000000800ab8b0                grColorMask
                0x00000000800ab6b8                grColorCombine
                0x00000000800abc0c                grFogMode
                0x00000000800aba3c                grDepthBufferFunction
                0x00000000800aad70                _grUpdateParamIndex
                0x00000000800ab948                grConstantColorValue
                0x00000000800abd5c                grRenderBuffer
 .text          0x00000000800ac100      0x280 /usr/local/GUTS/3dfx/glide-rush2.7/libglide.a(glfb.o)
                0x00000000800ac29c                grLfbConstantAlpha
                0x00000000800ac100                grLfbBypassMode
                0x00000000800ac340                grLfbEnd
                0x00000000800ac14c                grLfbGetReadPtr
                0x00000000800ac25c                grLfbWriteMode
                0x00000000800ac2d4                grLfbBegin
                0x00000000800ac2b8                grLfbConstantDepth
                0x00000000800ac214                grLfbOrigin
                0x00000000800ac1b0                grLfbGetWritePtr
 .text          0x00000000800ac380     0x1190 /usr/local/GUTS/3dfx/glide-rush2.7/libglide.a(gsst.o)
                0x00000000800ad420                grSstVRetraceOn
                0x00000000800ad408                grSstStatus
                0x00000000800ad340                grSstResetPerfStats
                0x00000000800ad2f8                grSstPerfStats
                0x00000000800ad138                grSstQueryHardware
                0x00000000800ad43c                grSstIsBusy
                0x00000000800ad4b8                grSstOrigin
                0x00000000800ad48c                grSstIdle
                0x00000000800ac380                _grSstDetectResources
                0x00000000800ad204                grSstSelect
                0x00000000800ad2e8                _grSstWriteRegs
                0x00000000800ad2e0                _grSstInitRegDebug
                0x00000000800ad2b8                grSstScreenHeight
                0x00000000800ad290                grSstScreenWidth
                0x00000000800ad458                grGammaCorrectionValue
                0x00000000800ac70c                grSstOpen
                0x00000000800ad3a0                grSstConfigPipeline
                0x00000000800ad358                grSstPassthruMode
                0x00000000800ad2f0                _grSstShutDownRegDebug
 .text          0x00000000800ad510     0x1960 /usr/local/GUTS/3dfx/glide-rush2.7/libglide.a(gtex.o)
                0x00000000800ade7c                _grTexDetailControl
                0x00000000800ae014                grTexGetCurrentMipMap
                0x00000000800aee40                grTexMultibaseAddress
                0x00000000800ae420                guTexSource
                0x00000000800ad91c                grTexCombine
                0x00000000800ae038                grTexFilterMode
                0x00000000800ae274                grTexMipMapMode
                0x00000000800add30                grTexCombineFunction
                0x00000000800aebe8                grTexTextureMemRequired
                0x00000000800aebc0                grTexMinAddress
                0x00000000800ae1a4                grTexLodBiasValue
                0x00000000800ad8a4                grTexClampMode
                0x00000000800adf68                _grTexDownloadNccTable
                0x00000000800adec0                grTexDetailControl
                0x00000000800ae1e0                guTexMemReset
                0x00000000800aee10                grTexMultibase
                0x00000000800ae0b0                _grTexForceLod
                0x00000000800aeb38                grTexNCCTable
                0x00000000800ae7e8                _grTexCalcNextAddress
                0x00000000800ae8d8                grTexCalcMemRequired
                0x00000000800ae950                guTexChangeAttributes
                0x00000000800ae118                guTexGetMipMapInfo
                0x00000000800aec54                grTexSource
                0x00000000800ae140                _grTexLodBiasValue
                0x00000000800ad56c                guTexAllocateMemory
                0x00000000800aebc8                grTexMaxAddress
                0x00000000800ad544                guTexMemQueryAvail
                0x00000000800ae6f8                _grTexCalcBaseAddress
 .text          0x00000000800aee70      0xac0 /usr/local/GUTS/3dfx/glide-rush2.7/libglide.a(gu.o)
                0x00000000800af480                guFogGenerateLinear
                0x00000000800af104                guEndianSwapBytes
                0x00000000800aef1c                guColorCombineFunction
                0x00000000800af11c                guFogTableIndexToW
                0x00000000800af7d4                guFbWriteRegion
                0x00000000800af0f4                guEndianSwapWords
                0x00000000800af1c8                guFogGenerateExp
                0x00000000800af320                guFogGenerateExp2
                0x00000000800af628                guFbReadRegion
                0x00000000800aee70                guAlphaSource
 .text          0x00000000800af930      0xe60 /usr/local/GUTS/3dfx/glide-rush2.7/libglide.a(info.o)
                0x00000000800b055c                sst1InitGetDeviceInfo
                0x00000000800b05e4                sst1InitFillDeviceInfo
                0x00000000800b04f8                sst1InitGetFbiInfo
                0x00000000800b007c                sst1InitGetTmuInfo
                0x00000000800aff24                sst1InitGetTmuMemory
 .text          0x00000000800b0790      0x260 /usr/local/GUTS/3dfx/glide-rush2.7/libglide.a(misc.o)
                0x00000000800b0894                INIT_PRINTF
                0x00000000800b08e4                timer
                0x00000000800b0790                pciGetConfigData
                0x00000000800b09b4                agcBufferSwap
                0x00000000800b0940                lcl_strupr
                0x00000000800b08ac                INIT_INFO
                0x00000000800b081c                pciSetConfigData
                0x00000000800b08d4                fxTime
                0x00000000800b0874                sst1InitGetenv
                0x00000000800b08c4                pciClose
 .text          0x00000000800b09f0      0xde0 /usr/local/GUTS/3dfx/glide-rush2.7/libglide.a(sli.o)
                0x00000000800b1568                sst1InitSliPciOwner
                0x00000000800b17bc                sst1InitSliDetect
                0x00000000800b09f0                sst1InitSli
                0x00000000800b1308                sst1InitShutdownSli
 .text          0x00000000800b17d0      0xf90 /usr/local/GUTS/3dfx/glide-rush2.7/libglide.a(sst1init.o)
                0x00000000800b2590                sst1InitClearBoardInfo
                0x00000000800b21ec                sst1InitRenderingRegisters
                0x00000000800b24d4                sst1InitCheckBoard
                0x00000000800b17d0                sst1InitMapBoard
                0x00000000800b2568                sst1InitGetBaseAddr
                0x00000000800b1c2c                sst1InitRegisters
                0x00000000800b231c                sst1InitShutdown
 .text          0x00000000800b2760      0x790 /usr/local/GUTS/3dfx/glide-rush2.7/libglide.a(trifom.o)
                0x00000000800b2ed0                _grVerticesToSST
                0x00000000800b2acc                agcDrawTriBlend
                0x00000000800b2760                _grDrawTriangleNonAA
 .text          0x00000000800b2ef0      0x6a0 /usr/local/GUTS/3dfx/glide-rush2.7/libglide.a(util.o)
                0x00000000800b31bc                sst1InitIdleFBINoNOP
                0x00000000800b3100                sst1InitIdleLoop
                0x00000000800b3158                sst1InitIdleFBI
                0x00000000800b321c                sst1InitReturnStatus
                0x00000000800b3228                sst1InitClearSwapPending
                0x00000000800b2ef0                sst1InitIdle
                0x00000000800b33c0                sst1InitResetTmus
                0x00000000800b331c                sst1InitVgaPassCtrl
 .text          0x00000000800b3590     0x1120 /usr/local/GUTS/3dfx/glide-rush2.7/libglide.a(video.o)
                0x00000000800b45c0                sst1InitSetGrxClk
                0x00000000800b3590                sst1InitVideo
                0x00000000800b4494                sst1InitSetResolution
                0x00000000800b4518                sst1InitSetVidClk
                0x00000000800b43e8                sst1InitSetVidMode
 .text          0x00000000800b46b0     0x1ec0 /usr/local/GUTS/3dfx/glide-rush2.7/libglide.a(dac.o)
                0x00000000800b48c8                sst1InitDacDetect
                0x00000000800b4ff8                sst1InitCalcGrxClk
                0x00000000800b554c                sst1InitSetVidClkICS
                0x00000000800b610c                sst1InitSetVidModeINI
                0x00000000800b5f04                sst1InitSetVidModeATT
                0x00000000800b4cc4                sst1InitDacDetectTI
                0x00000000800b4a58                sst1InitDacDetectINI
                0x00000000800b5a6c                sst1InitSetGrxClkICS
                0x00000000800b56f4                sst1InitSetVidClkINI
                0x00000000800b5c88                sst1InitSetGrxClkINI
                0x00000000800b46f0                sst1InitDacWr
                0x00000000800b62b4                sst1InitDacIndexedEnable
                0x00000000800b508c                sst1InitGrxClk
                0x00000000800b46b0                sst1InitDacRd
                0x00000000800b5444                sst1InitSetVidClkATT
                0x00000000800b5fc0                sst1InitSetVidModeICS
                0x00000000800b58e4                sst1InitSetGrxClkATT
                0x00000000800b512c                sst1InitComputeClkParams
                0x00000000800b4e88                sst1InitDacDetectICS
                0x00000000800b4b04                sst1InitDacDetectATT
                0x00000000800b4720                sst1InitExecuteDacRdWr
 .text          0x00000000800b6570      0xb30 /usr/local/GUTS/3dfx/glide-rush2.7/libglide.a(gdraw.o)
                0x00000000800b6cd4                _grInitTriSetupCode
                0x00000000800b6a0c                grDrawLine
                0x00000000800b6988                grDrawPolygonVertexList
                0x00000000800b6570                grDrawTriangle
                0x00000000800b68d8                grDrawPolygon
                0x00000000800b6828                grDrawPlanarPolygon
                0x00000000800b6694                grDrawPoint
 .text          0x00000000800b70a0       0x60 /usr/local/GUTS/3dfx/glide-rush2.7/libglide.a(gerror.o)
                0x00000000800b70a0                grErrorSetCallback
                0x00000000800b70b0                _grErrorDefaultCallback
 .text          0x00000000800b7100      0x340 /usr/local/GUTS/3dfx/glide-rush2.7/libglide.a(gxdraw.o)
                0x00000000800b7100                _trisetup
 .text          0x00000000800b7440      0xd50 /usr/local/gnu/IRIX/mips-97q1/mipsel-elf/lib/libnsprintff.a(new_nvfprintf.o)
                0x00000000800b7834                twi_vfprintf
                0x00000000800b8158                nvfprintf
 .text          0x00000000800b8190       0x30 /usr/local/gnu/IRIX/mips-97q1/mipsel-elf/lib/libnsprintff.a(nsprintf.o)
                0x00000000800b8190                nsprintf
 .text          0x00000000800b81c0      0x730 /usr/local/gnu/IRIX/mips-97q1/mipsel-elf/lib/libmf.a(acos.o)
                0x00000000800b84f8                _acos_r
                0x00000000800b8890                _acosf_r
                0x00000000800b88b8                acosf
                0x00000000800b8558                _arcsinef
                0x00000000800b81c0                _arcsine
                0x00000000800b8520                acos
 .text          0x00000000800b88f0      0x100 /usr/local/gnu/IRIX/mips-97q1/mipsel-elf/lib/libmf.a(atan2f.o)
                0x00000000800b88f0                atan2f
 .text          0x00000000800b89f0      0x1f0 /usr/local/gnu/IRIX/mips-97q1/mipsel-elf/lib/libmf.a(atanf.o)
                0x00000000800b8ad4                _satanf
                0x00000000800b8b98                atanf
 .text          0x00000000800b8be0      0x280 /usr/local/gnu/IRIX/mips-97q1/mipsel-elf/lib/libmf.a(exp.o)
                0x00000000800b8be0                _exp_r
                0x00000000800b8e2c                exp
 .text          0x00000000800b8e60      0x280 /usr/local/gnu/IRIX/mips-97q1/mipsel-elf/lib/libmf.a(expf.o)
                0x00000000800b90ac                expf
                0x00000000800b8e60                _expf_r
 .text          0x00000000800b90e0       0x50 /usr/local/gnu/IRIX/mips-97q1/mipsel-elf/lib/libmf.a(fabs.o)
                0x00000000800b90e0                fabs
                0x00000000800b9108                fabsf
 .text          0x00000000800b9130       0x90 /usr/local/gnu/IRIX/mips-97q1/mipsel-elf/lib/libmf.a(infinity.o)
                0x00000000800b91ac                maxpowtwof
                0x00000000800b9130                infinity
                0x00000000800b9190                maxpowtwo
                0x00000000800b917c                nanf
                0x00000000800b914c                infinityf
                0x00000000800b9160                nan
 .text          0x00000000800b91c0      0x1f0 /usr/local/gnu/IRIX/mips-97q1/mipsel-elf/lib/libmf.a(ldexp.o)
                0x00000000800b937c                ldexpf
                0x00000000800b9214                _ldexpf_r
                0x00000000800b91e0                ldexp
                0x00000000800b91c0                _ldexp_r
 .text          0x00000000800b93b0      0x140 /usr/local/gnu/IRIX/mips-97q1/mipsel-elf/lib/libmf.a(modf.o)
                0x00000000800b93b0                modf
 .text          0x00000000800b94f0      0x140 /usr/local/gnu/IRIX/mips-97q1/mipsel-elf/lib/libmf.a(modff.o)
                0x00000000800b94f0                modff
 .text          0x00000000800b9630      0x320 /usr/local/gnu/IRIX/mips-97q1/mipsel-elf/lib/libmf.a(pow.o)
                0x00000000800b9630                _pow_r
                0x00000000800b990c                pow
 .text          0x00000000800b9950      0x320 /usr/local/gnu/IRIX/mips-97q1/mipsel-elf/lib/libmf.a(powf.o)
                0x00000000800b9c2c                powf
                0x00000000800b9950                _powf_r
 .text          0x00000000800b9c70      0x350 /usr/local/gnu/IRIX/mips-97q1/mipsel-elf/lib/libmf.a(sincosf.o)
                0x00000000800b9f0c                _cosf_r
                0x00000000800b9d3c                _sinf_r
                0x00000000800b9f90                cosf
                0x00000000800b9edc                sinf
 .text          0x00000000800b9fc0      0x4b0 /usr/local/gnu/IRIX/mips-97q1/mipsel-elf/lib/libmf.a(sqrt.o)
                0x00000000800ba1e4                sqrt
                0x00000000800ba438                sqrtf
                0x00000000800ba214                _sqrtf_r
                0x00000000800b9fc0                _sqrt_r
 .text          0x00000000800ba470      0x450 /usr/local/gnu/IRIX/mips-97q1/mipsel-elf/lib/libmf.a(tanf.o)
                0x00000000800ba818                _tanf_r
                0x00000000800ba73c                _cotanf_r
                0x00000000800ba7e8                cotanf
                0x00000000800ba870                tanf
 .text          0x00000000800ba8c0       0xf0 /usr/local/gnu/IRIX/mips-97q1/mipsel-elf/lib/libmf.a(floor.o)
                0x00000000800ba918                ceil
                0x00000000800ba8c0                floor
                0x00000000800ba990                ceilf
                0x00000000800ba938                floorf
 .text          0x00000000800ba9b0      0x1d0 /usr/local/gnu/IRIX/mips-97q1/mipsel-elf/lib/libmf.a(fmodf.o)
                0x00000000800bab44                fmodf
                0x00000000800ba9b0                _fmodf_r
 .text          0x00000000800bab80      0x260 /usr/local/gnu/IRIX/mips-97q1/mipsel-elf/lib/libmf.a(frexp.o)
                0x00000000800bacac                _frexpf_r
                0x00000000800bada4                frexpf
                0x00000000800bab80                _frexp_r
                0x00000000800bac78                frexp
 .text          0x00000000800bade0      0x480 /usr/local/gnu/IRIX/mips-97q1/mipsel-elf/lib/libmf.a(log.o)
                0x00000000800bafec                log
                0x00000000800bb228                logf
                0x00000000800bb01c                _logf_r
                0x00000000800bade0                _log_r
 .text          0x00000000800bb260       0x20 /usr/local/gnu/IRIX/mips-97q1/mipsel-elf/lib/libcf.a(abs.o)
                0x00000000800bb260                abs
 .text          0x00000000800bb280       0x50 /usr/local/gnu/IRIX/mips-97q1/mipsel-elf/lib/libcf.a(atoi.o)
                0x00000000800bb2a4                atol
                0x00000000800bb280                atoi
 .text          0x00000000800bb2d0      0x120 /usr/local/gnu/IRIX/mips-97q1/mipsel-elf/lib/libcf.a(bsearch.o)
                0x00000000800bb2d0                bsearch
 .text          0x00000000800bb3f0       0x70 /usr/local/gnu/IRIX/mips-97q1/mipsel-elf/lib/libcf.a(callocr.o)
                0x00000000800bb3f0                _calloc_r
 .text          0x00000000800bb460      0x680 /usr/local/gnu/IRIX/mips-97q1/mipsel-elf/lib/libcf.a(cvt.o)
                0x00000000800bb8cc                _sicvt
                0x00000000800bb460                _llicvt
                0x00000000800bb708                _icvt
 .text          0x00000000800bbae0      0xad0 /usr/local/gnu/IRIX/mips-97q1/mipsel-elf/lib/libcf.a(ecvtbuf.o)
                0x00000000800bbec0                fcvtbuf
                0x00000000800bc4a4                _dcvt
                0x00000000800bc1b4                _gcvt
                0x00000000800bc06c                ecvtbuf
 .text          0x00000000800bc5b0       0x10 /usr/local/gnu/IRIX/mips-97q1/mipsel-elf/lib/libcf.a(errno.o)
                0x00000000800bc5b0                __errno
 .text          0x00000000800bc5c0      0x110 /usr/local/gnu/IRIX/mips-97q1/mipsel-elf/lib/libcf.a(fopen.o)
                0x00000000800bc6a0                fopen
                0x00000000800bc5c0                _fopen_r
 .text          0x00000000800bc6d0      0x470 /usr/local/gnu/IRIX/mips-97q1/mipsel-elf/lib/libcf.a(fseek.o)
                0x00000000800bc6d0                fseek
 .text          0x00000000800bcb40       0x50 /usr/local/gnu/IRIX/mips-97q1/mipsel-elf/lib/libcf.a(fstatr.o)
                0x00000000800bcb40                _fstat_r
 .text          0x00000000800bcb90       0xa0 /usr/local/gnu/IRIX/mips-97q1/mipsel-elf/lib/libcf.a(fwrite.o)
                0x00000000800bcb90                fwrite
 .text          0x00000000800bcc30      0x170 /usr/local/gnu/IRIX/mips-97q1/mipsel-elf/lib/libcf.a(makebuf.o)
                0x00000000800bcc30                __smakebuf
 .text          0x00000000800bcda0       0x50 /usr/local/gnu/IRIX/mips-97q1/mipsel-elf/lib/libcf.a(memcmp.o)
                0x00000000800bcda0                memcmp
 .text          0x00000000800bcdf0       0x90 /usr/local/gnu/IRIX/mips-97q1/mipsel-elf/lib/libcf.a(memmove.o)
                0x00000000800bcdf0                memmove
 .text          0x00000000800bce80      0xf30 /usr/local/gnu/IRIX/mips-97q1/mipsel-elf/lib/libcf.a(mprec.o)
                0x00000000800bdd58                _mprec_log10
                0x00000000800bd1d4                _hi0bits
                0x00000000800bd314                i2b
                0x00000000800bd65c                lshift
                0x00000000800bce80                _Balloc
                0x00000000800bdcb8                _ratio
                0x00000000800bd798                __mcmp
                0x00000000800bdb44                d2b
                0x00000000800bd0a0                s2b
                0x00000000800bd980                _ulp
                0x00000000800bda0c                _b2d
                0x00000000800bd564                pow5mult
                0x00000000800bcf80                _multadd
                0x00000000800bd34c                mult
                0x00000000800bd800                __mdiff
                0x00000000800bd254                lo0bits
                0x00000000800bcf44                _Bfree
 .text          0x00000000800bddb0       0x80 /usr/local/gnu/IRIX/mips-97q1/mipsel-elf/lib/libcf.a(printf.o)
                0x00000000800bdde4                printf
                0x00000000800bddb0                _printf_r
 .text          0x00000000800bde30       0xb0 /usr/local/gnu/IRIX/mips-97q1/mipsel-elf/lib/libcf.a(puts.o)
                0x00000000800bde30                _puts_r
                0x00000000800bdeb4                puts
 .text          0x00000000800bdee0      0x3a0 /usr/local/gnu/IRIX/mips-97q1/mipsel-elf/lib/libcf.a(qsort.o)
                0x00000000800be244                qsort
 .text          0x00000000800be280      0x1b0 /usr/local/gnu/IRIX/mips-97q1/mipsel-elf/lib/libcf.a(refill.o)
                0x00000000800be2a0                __srefill
 .text          0x00000000800be430      0x180 /usr/local/gnu/IRIX/mips-97q1/mipsel-elf/lib/libcf.a(stdio.o)
                0x00000000800be514                __sseek
                0x00000000800be430                __sread
                0x00000000800be580                __sclose
                0x00000000800be498                __swrite
 .text          0x00000000800be5b0       0x40 /usr/local/gnu/IRIX/mips-97q1/mipsel-elf/lib/libcf.a(strcat.o)
                0x00000000800be5b0                strcat
 .text          0x00000000800be5f0       0x70 /usr/local/gnu/IRIX/mips-97q1/mipsel-elf/lib/libcf.a(strchr.o)
                0x00000000800be5f0                strchr
 .text          0x00000000800be660       0x50 /usr/local/gnu/IRIX/mips-97q1/mipsel-elf/lib/libcf.a(strcmp.o)
                0x00000000800be660                strcmp
 .text          0x00000000800be6b0       0x30 /usr/local/gnu/IRIX/mips-97q1/mipsel-elf/lib/libcf.a(strcpy.o)
                0x00000000800be6b0                strcpy
 .text          0x00000000800be6e0       0x30 /usr/local/gnu/IRIX/mips-97q1/mipsel-elf/lib/libcf.a(strlen.o)
                0x00000000800be6e0                strlen
 .text          0x00000000800be710       0x70 /usr/local/gnu/IRIX/mips-97q1/mipsel-elf/lib/libcf.a(strncat.o)
                0x00000000800be710                strncat
 .text          0x00000000800be780       0x70 /usr/local/gnu/IRIX/mips-97q1/mipsel-elf/lib/libcf.a(strncmp.o)
                0x00000000800be780                strncmp
 .text          0x00000000800be7f0       0x50 /usr/local/gnu/IRIX/mips-97q1/mipsel-elf/lib/libcf.a(strncpy.o)
                0x00000000800be7f0                strncpy
 .text          0x00000000800be840       0x60 /usr/local/gnu/IRIX/mips-97q1/mipsel-elf/lib/libcf.a(strstr.o)
                0x00000000800be840                strstr
 .text          0x00000000800be8a0      0x1a0 /usr/local/gnu/IRIX/mips-97q1/mipsel-elf/lib/libcf.a(strtol.o)
                0x00000000800bea00                strtol
                0x00000000800be8a0                _strtol_r
 .text          0x00000000800bea40      0x2a0 /usr/local/gnu/IRIX/mips-97q1/mipsel-elf/lib/libcf.a(strtoul.o)
                0x00000000800bec9c                strtoul
                0x00000000800bea40                _strtoul_r
 .text          0x00000000800bece0      0xa70 /usr/local/gnu/IRIX/mips-97q1/mipsel-elf/lib/libcf.a(vfprintf.o)
                0x00000000800beefc                _vfprintf_r
                0x00000000800beec8                vfprintf
 .text          0x00000000800bf750       0xb0 /usr/local/gnu/IRIX/mips-97q1/mipsel-elf/lib/libcf.a(dtoa.o)
                0x00000000800bf764                _dtoa_r
 .text          0x00000000800bf800      0x110 /usr/local/gnu/IRIX/mips-97q1/mipsel-elf/lib/libcf.a(fflush.o)
                0x00000000800bf800                fflush
 .text          0x00000000800bf910      0x180 /usr/local/gnu/IRIX/mips-97q1/mipsel-elf/lib/libcf.a(filer.o)
                0x00000000800bf9a0                _lseek_r
                0x00000000800bf9ec                _read_r
                0x00000000800bf910                _open_r
                0x00000000800bf95c                _close_r
                0x00000000800bfa38                _write_r
 .text          0x00000000800bfa90      0x2a0 /usr/local/gnu/IRIX/mips-97q1/mipsel-elf/lib/libcf.a(findfp.o)
                0x00000000800bfc98                __sinit
                0x00000000800bfae8                __sfmoreglue
                0x00000000800bfc70                _cleanup
                0x00000000800bfc48                _cleanup_r
                0x00000000800bfb68                __sfp
 .text          0x00000000800bfd30       0xb0 /usr/local/gnu/IRIX/mips-97q1/mipsel-elf/lib/libcf.a(flags.o)
                0x00000000800bfd30                __sflags
 .text          0x00000000800bfde0       0x90 /usr/local/gnu/IRIX/mips-97q1/mipsel-elf/lib/libcf.a(fputc.o)
                0x00000000800bfde0                fputc
 .text          0x00000000800bfe70       0x50 /usr/local/gnu/IRIX/mips-97q1/mipsel-elf/lib/libcf.a(fputs.o)
                0x00000000800bfe70                fputs
 .text          0x00000000800bfec0      0x390 /usr/local/gnu/IRIX/mips-97q1/mipsel-elf/lib/libcf.a(fvwrite.o)
                0x00000000800bfec0                __sfvwrite
 .text          0x00000000800c0250       0xa0 /usr/local/gnu/IRIX/mips-97q1/mipsel-elf/lib/libcf.a(fwalk.o)
                0x00000000800c0250                _fwalk
 .text          0x00000000800c02f0       0x40 /usr/local/gnu/IRIX/mips-97q1/mipsel-elf/lib/libcf.a(memchr.o)
                0x00000000800c02f0                memchr
 .text          0x00000000800c0330      0x120 /usr/local/gnu/IRIX/mips-97q1/mipsel-elf/lib/libcf.a(wbuf.o)
                0x00000000800c0330                __swbuf
 .text          0x00000000800c0450      0x110 /usr/local/gnu/IRIX/mips-97q1/mipsel-elf/lib/libcf.a(wsetup.o)
                0x00000000800c0450                __swsetup
 .text          0x00000000800c0560     0x1510 /usr/local/gnu/IRIX/mips-97q1/mipsel-elf/lib/libcf.a(ddtoa.o)
                0x00000000800c08f8                _ddtoa_r
 .text          0x00000000800c1a70     0x1330 /usr/local/gnu/IRIX/mips-97q1/mipsel-elf/lib/libgcc.a(_divdi3.o)
                0x00000000800c1a70                __divdi3
 .text          0x00000000800c2da0     0x1320 /usr/local/gnu/IRIX/mips-97q1/mipsel-elf/lib/libgcc.a(_moddi3.o)
                0x00000000800c2da0                __moddi3
 .text          0x00000000800c40c0     0x1230 /usr/local/gnu/IRIX/mips-97q1/mipsel-elf/lib/libgcc.a(_udivdi3.o)
                0x00000000800c40c0                __udivdi3
 .text          0x00000000800c52f0     0x1230 /usr/local/gnu/IRIX/mips-97q1/mipsel-elf/lib/libgcc.a(_umoddi3.o)
                0x00000000800c52f0                __umoddi3
 *(.rodata)
 .rodata        0x00000000800c6520      0xe00 obj/gameblk.o
                0x00000000800c7318                PBASE
                0x00000000800c72e0                gameblk
                0x00000000800c72c8                date
 .rodata        0x00000000800c7320      0xc80 obj/attract.o
                0x00000000800c7320                gVersion
 .rodata        0x00000000800c7fa0      0x110 obj/camera.o
                0x00000000800c7fbc                fixed_uvs
                0x00000000800c7fb0                driveroff_z
                0x00000000800c7fb4                acc_elasticity
                0x00000000800c7fac                driveroff_y
                0x00000000800c7fa4                wormoff_z
                0x00000000800c7fb8                acc_elasticity2
                0x00000000800c7fa0                wormoff_y
                0x00000000800c7fa8                driveroff_x
 .rodata        0x00000000800c80b0      0x230 obj/carsnd.o
                0x00000000800c80f0                target_snd
                0x00000000800c80c0                tire_skid
                0x00000000800c8100                target_volume
                0x00000000800c810c                skid_tab
                0x00000000800c81ac                thump_tab
                0x00000000800c80d0                tire_tab
                0x00000000800c80b0                tire_smoke
                0x00000000800c81cc                bump_tab
 .rodata        0x00000000800c82e0      0xf50 obj/checkpoint.o
                0x00000000800c9088                laps_to_go
                0x00000000800c909c                tmpuvs
 .rodata        0x00000000800c9230       0x10 obj/cksum.o
 .rodata        0x00000000800c9240       0x10 obj/collision.o
                0x00000000800c9240                g_Kcs
                0x00000000800c924c                g_Krd
                0x00000000800c9244                g_Krs
                0x00000000800c9248                g_Kcd
 .rodata        0x00000000800c9250     0x10b0 obj/cpinit.o
                0x00000000800c9e3c                InitCP_Track
                0x00000000800c9464                InitTrack1BCPs
                0x00000000800c9d78                InitTrack7BCPs
                0x00000000800c9aa0                InitTrack5BCPs
                0x00000000800c9b2c                InitTrack6CPs
                0x00000000800c9250                InitTrack0CPs
                0x00000000800c9528                InitTrack2CPs
                0x00000000800c9640                InitTrack2BCPs
                0x00000000800c9cb4                InitTrack7CPs
                0x00000000800c9e7c                init_track_data
                0x00000000800c9bf0                InitTrack6BCPs
                0x00000000800c98fc                InitTrack4CPs
                0x00000000800c9314                InitTrack0BCPs
                0x00000000800c9854                InitTrack3BCPs
                0x00000000800c9a14                InitTrack5CPs
                0x00000000800c9758                InitTrack3CPs
                0x00000000800c93a0                InitTrack1CPs
                0x00000000800c9988                InitTrack4BCPs
 .rodata        0x00000000800ca300      0x630 obj/debug.o
                0x00000000800ca300                defFogColors
                0x00000000800ca360                defFogMaxLevel
                0x00000000800ca340                defFogMaxDist
                0x00000000800ca320                defFogMinDist
 .rodata        0x00000000800ca930      0x560 obj/dis.o
 .rodata        0x00000000800cae90      0x170 obj/dnl.o
 .rodata        0x00000000800cb000       0xa0 obj/drones.o
 .rodata        0x00000000800cb0a0       0x20 obj/fswheel.o
                0x00000000800cb0b4                swtorquefres
                0x00000000800cb0b2                play
 .rodata        0x00000000800cb0c0      0xf60 obj/game.o
                0x00000000800cbe98                kill_announcer
                0x00000000800cbea0                GO_TDIFF
                0x00000000800cbe68                sethang
                0x00000000800cbec0                GOS_TDIFF
                0x00000000800cbf00                GOS_TRKLAPS
                0x00000000800cbe90                announcer_sound
                0x00000000800cbee0                GO_TRKLAPS
 .rodata        0x00000000800cc020       0xa0 obj/gamenet.o
                0x00000000800cc020                BROADCAST_COM_CHAN
 .rodata        0x00000000800cc0c0      0xe40 obj/hiscore.o
                0x00000000800cc0c0                font1
                0x00000000800cc200                font1yinfo
                0x00000000800cc21c                font1rinfo
                0x00000000800cc1e4                font1info
                0x00000000800cc284                font3info
                0x00000000800cc238                font3
 .rodata        0x00000000800ccf00      0xd50 obj/hud.o
 .rodata        0x00000000800cdc50       0x10 obj/init.o
 .rodata        0x00000000800cdc60      0x650 obj/math.o
                0x00000000800ce26c                unituvs16
                0x00000000800ce288                unituvs32
                0x00000000800cdc60                sintab
                0x00000000800cde64                asintab
                0x00000000800ce068                atantab
 .rodata        0x00000000800ce2b0      0x660 obj/maxpath.o
                0x00000000800ce450                g_lookahd
                0x00000000800ce2d8                hint_types
                0x00000000800ce44c                g_MPspdscale
                0x00000000800ce2b4                unit_uvs
                0x00000000800ce46c                g_sfscale
 .rodata        0x00000000800ce910      0x140 obj/mdrive.o
                0x00000000800ce998                demo_t1_path_points
                0x00000000800ce910                use_sched
                0x00000000800ce9bc                demo_t2_path_points
                0x00000000800ce9f0                demo_t4_path_points
                0x00000000800ce920                drone_sched
                0x00000000800cea04                demo_path_points
                0x00000000800cea24                num_demo_ppoints
                0x00000000800ce9d0                demo_t3_path_points
 .rodata        0x00000000800cea50     0x1380 obj/menu_data.o
                0x00000000800cf870                edit_maxpath_menu
                0x00000000800cef78                copy_maxpath_menu
                0x00000000800cf1c4                weight_menu
                0x00000000800ceb8c                set_maxpath_menu
                0x00000000800ceb04                path_menu
                0x00000000800cf5f4                edit_hint_menu
                0x00000000800cf040                set_drone_menu
                0x00000000800cfcfc                main_menu
                0x00000000800cea50                chkpoint_menu
                0x00000000800cf674                more_options_menu
                0x00000000800cfb88                maxpath_menu
                0x00000000800cf3ec                single_hint_menu
                0x00000000800ceeb4                priority_menu
                0x00000000800cf554                multi_hint_menu
                0x00000000800ced4c                activate_maxpath_menu
 .rodata        0x00000000800cfdd0       0x50 obj/menus.o
 .rodata        0x00000000800cfe20       0x50 obj/model.o
                0x00000000800cfe40                cuscale
                0x00000000800cfe20                cuzone
                0x00000000800cfe60                cusolo
 .rodata        0x00000000800cfe70      0x410 obj/moobs.o
                0x00000000800cfe70                init_sound_table
                0x00000000800cfeb8                misc_sound_tab
 .rodata        0x00000000800d0280      0x190 obj/pdu.o
 .rodata        0x00000000800d0410       0x50 obj/pots.o
                0x00000000800d0410                pot_def
 .rodata        0x00000000800d0460       0xf0 obj/resurrect.o
                0x00000000800d0460                major_axis
                0x00000000800d046c                pole_pos_offset
 .rodata        0x00000000800d0550     0x1180 obj/select.o
                0x00000000800d0590                kill_others_locked_sound
                0x00000000800d0550                car_type_sound
                0x00000000800d0558                kill_car_type_sound
                0x00000000800d0580                others_locked_sound
                0x00000000800d0570                waiting_on_sound
                0x00000000800d0560                track_picked_sound
 .rodata        0x00000000800d16d0       0x80 obj/sounds.o
                0x00000000800d16d0                max_radio
                0x00000000800d16e4                demo_radio_on
                0x00000000800d1714                tire_squeal
                0x00000000800d16f4                own_engine
                0x00000000800d16d4                demo_radio_off
                0x00000000800d1704                other_engine
                0x00000000800d16f2                num_engines
 .rodata        0x00000000800d1750      0x880 obj/stats.o
 .rodata        0x00000000800d1fd0      0x1b0 obj/targets.o
 .rodata        0x00000000800d2180       0x20 obj/timint.o
 .rodata        0x00000000800d21a0      0x610 obj/tourney.o
 .rodata        0x00000000800d27b0     0x1570 obj/visuals.o
                0x00000000800d29cc                gDamageMask
                0x00000000800d29c4                gDamageShift
                0x00000000800d3c68                shadow_scale
 .rodata        0x00000000800d3d20      0xf90 obj/cars.o
                0x00000000800d3ff0                racetorquecurve
                0x00000000800d3d20                stdtorquecurve
                0x00000000800d40e0                rushtorquecurve
                0x00000000800d46d8                expert
                0x00000000800d4454                advanced
                0x00000000800d3f00                subtorquecurve
                0x00000000800d3e10                stddirttorquecurve
                0x00000000800d4c98                carlist
                0x00000000800d4958                extreme
                0x00000000800d4bd8                collsize
                0x00000000800d4ca8                num_cars
                0x00000000800d41d0                beginner
 .rodata        0x00000000800d4cb0       0x80 obj/drivsym.o
                0x00000000800d4d24                dirtdamp
                0x00000000800d4ce4                as_air
                0x00000000800d4cb4                as_road
                0x00000000800d4cb0                maxrwr
                0x00000000800d4d14                as_scale
 .rodata        0x00000000800d4d30       0x20 obj/stree.o
                0x00000000800d4d30                g_collalg
 .rodata        0x00000000800d4d50       0x40 obj/unitvecs.o
                0x00000000800d4d50                munituvs
 .rodata        0x00000000800d4d90       0x30 obj/world.o
                0x00000000800d4d94                WorldTable
 .rodata        0x00000000800d4dc0      0x580 obj/anim.o
 .rodata        0x00000000800d5340       0xb0 obj/blit.o
 .rodata        0x00000000800d53f0      0x3c0 obj/error.o
                0x00000000800d53f4                ErrorTable
 .rodata        0x00000000800d57b0      0x110 obj/fmath.o
                0x00000000800d5864                lrmat
                0x00000000800d5834                unitmat
                0x00000000800d5810                fvector
                0x00000000800d58a4                quatyaw180
                0x00000000800d5894                unitquat
                0x00000000800d5804                lvector
                0x00000000800d5828                hugevector
                0x00000000800d57e0                uvector
                0x00000000800d57ec                dvector
                0x00000000800d57b0                unituvs
                0x00000000800d57d4                zerovector
                0x00000000800d581c                bvector
                0x00000000800d57f8                rvector
 .rodata        0x00000000800d58c0       0xc0 obj/font.o
 .rodata        0x00000000800d5980       0x20 obj/mem.o
 .rodata        0x00000000800d59a0       0x70 obj/timer.o
 .rodata        0x00000000800d5a10       0x30 obj/strings.o
 .rodata        0x00000000800d5a40       0x60 /home/boffo/usr7/rush/game/MB/zmb.a(mb_poly.o)
 .rodata        0x00000000800d5aa0       0x10 /home/boffo/usr7/rush/game/MB/zmb.a(mb_lights.o)
                0x00000000800d5aa0                MBLightList
 .rodata        0x00000000800d5ab0      0x100 /home/boffo/usr7/rush/game/MB/zmb.a(mb_main.o)
 .rodata        0x00000000800d5bb0       0xd0 /home/boffo/usr7/rush/game/MB/zmb.a(mb_objects.o)
 .rodata        0x00000000800d5c80       0x50 /home/boffo/usr7/rush/game/MB/zmb.a(mb_blit.o)
 .rodata        0x00000000800d5cd0       0x90 /home/boffo/usr7/rush/game/MB/zmb.a(mb_model.o)
 .rodata        0x00000000800d5d60       0x50 /home/boffo/usr7/rush/game/MB/zmb.a(mb_util.o)
 .rodata        0x00000000800d5db0       0x30 /home/boffo/usr7/rush/game/MB/zmb.a(mb_camera.o)
 .rodata        0x00000000800d5de0       0x40 /home/boffo/usr7/rush/game/MB/zmb.a(mb_simpleclip.o)
 .rodata        0x00000000800d5e20       0x20 /home/boffo/usr7/rush/game/MB/zmb.a(mb_simple.o)
 .rodata        0x00000000800d5e40      0x200 /home/boffo/usr7/rush/game/OS/libos.a(phx_shims.o)
 .rodata        0x00000000800d6040      0x260 /home/boffo/usr7/rush/game/OS/libos.a(fexcp.o)
 .rodata        0x00000000800d62a0       0x50 /home/boffo/usr7/rush/game/OS/libos.a(phx_time.o)
 .rodata        0x00000000800d62f0      0x200 /home/boffo/usr7/rush/game/OS/libos.a(dispatch.o)
 .rodata        0x00000000800d64f0      0x160 /home/boffo/usr7/rush/game/OS/libos.a(selftest.o)
                0x00000000800d64f0                selftest_id
 .rodata        0x00000000800d6650      0x1a0 /home/boffo/usr7/rush/game/OS/libos.a(pm.o)
                0x00000000800d6650                pm_id
 .rodata        0x00000000800d67f0      0x3b0 /home/boffo/usr7/rush/game/OS/libos.a(eedrive.o)
                0x00000000800d67f0                eedrive_id
                0x00000000800d6b08                eer_config
 .rodata        0x00000000800d6ba0       0x80 /home/boffo/usr7/rush/game/OS/libos.a(cdec_hex.o)
                0x00000000800d6ba0                cdec_hex_id
 .rodata        0x00000000800d6c20       0x40 /home/boffo/usr7/rush/game/OS/libos.a(random.o)
                0x00000000800d6c20                random_id
 .rodata        0x00000000800d6c60      0x850 /home/boffo/usr7/rush/game/OS/libos.a(stats.o)
                0x00000000800d6c60                stats_id
 .rodata        0x00000000800d74b0      0x110 /home/boffo/usr7/rush/game/OS/libos.a(mallocr.o)
 .rodata        0x00000000800d75c0       0xb0 /home/boffo/usr7/rush/game/OS/libos.a(audio.o)
                0x00000000800d7618                ccmd_list
                0x00000000800d75c0                ccmd17
                0x00000000800d75ec                ccmd00
 .rodata        0x00000000800d7670      0x6c0 /home/boffo/usr7/rush/game/OS/libos.a(phx_coin.o)
                0x00000000800d76ac                bonustab
                0x00000000800d7670                phx_coin_id
                0x00000000800d7734                coinmenu
 .rodata        0x00000000800d7d30      0x200 /home/boffo/usr7/rush/game/OS/libos.a(pots.o)
                0x00000000800d7d30                pots_id
 .rodata        0x00000000800d7f30      0xfd0 /home/boffo/usr7/rush/game/OS/libos.a(gamedefs.o)
                0x00000000800d8988                t_msg_actionh
                0x00000000800d89dc                t_msg_ret_menu
                0x00000000800d8964                t_msg_nexth
                0x00000000800d8a0c                t_msg_restore
                0x00000000800d89c0                t_msg_control
                0x00000000800d8934                t_msg_clear
                0x00000000800d897c                t_msg_action
                0x00000000800d8954                t_msg_next
                0x00000000800d8e7c                guts_pbase
                0x00000000800d8c6c                mainMenu
                0x00000000800d89a0                t_msg_extra
                0x00000000800d89f0                t_msg_save_ret
                0x00000000800d89ac                t_msg_extrah
 .rodata        0x00000000800d8f00       0x60 /home/boffo/usr7/rush/game/OS/libos.a(qio_rmt.o)
 .rodata        0x00000000800d8f60      0x220 /home/boffo/usr7/rush/game/OS/libos.a(sst_vid.o)
 .rodata        0x00000000800d9180      0x170 /home/boffo/usr7/rush/game/OS/libos.a(sst_text.o)
                0x00000000800d92e8                BIG_OFFSET
                0x00000000800d9180                BTABLE
                0x00000000800d9268                trantab
 .rodata        0x00000000800d92f0      0x4d0 /home/boffo/usr7/rush/game/OS/libos.a(ram_test.o)
                0x00000000800d92f0                ram_test_id
 .rodata        0x00000000800d97c0       0x40 /home/boffo/usr7/rush/game/OS/libos.a(mem_test.o)
                0x00000000800d97c0                mem_test_id
 .rodata        0x00000000800d9800      0x1b0 /home/boffo/usr7/rush/game/OS/libos.a(scope.o)
                0x00000000800d9800                scope_id
 .rodata        0x00000000800d99b0       0x40 /home/boffo/usr7/rush/game/OS/libos.a(entry.o)
                0x00000000800d99b0                entry_id
 .rodata        0x00000000800d99f0      0x100 /home/boffo/usr7/rush/game/OS/libos.a(menus.o)
                0x00000000800d99f0                menus_id
 .rodata        0x00000000800d9af0      0x2e0 /home/boffo/usr7/rush/game/OS/libos.a(swt_test.o)
 .rodata        0x00000000800d9dd0      0x570 /home/boffo/usr7/rush/game/OS/libos.a(snd_test.o)
                0x00000000800da0d0                aud_cksum_dly
                0x00000000800d9dd0                snd_test_id
 .rodata        0x00000000800da340       0x90 /home/boffo/usr7/rush/game/OS/libos.a(qio.o)
 .rodata        0x00000000800da3d0      0x480 /home/boffo/usr7/rush/game/OS/libos.a(fsys.o)
 .rodata        0x00000000800da850     0x1930 /home/boffo/usr7/rush/game/OS/libos.a(qio_errs.o)
 .rodata        0x00000000800dc180      0x260 /home/boffo/usr7/rush/game/OS/libos.a(phx_ide.o)
 .rodata        0x00000000800dc3e0      0x120 /home/boffo/usr7/rush/game/OS/libos.a(phx_hdshims.o)
 .rodata        0x00000000800dc500      0x160 /home/boffo/usr7/rush/game/OS/libos.a(net_test.o)
 .rodata        0x00000000800dc660       0x30 /home/boffo/usr7/rush/game/OS/libos.a(net_link.o)
 .rodata        0x00000000800dc690      0x4c0 /home/boffo/usr7/rush/game/OS/libos.a(wms_ioasic.o)
 .rodata        0x00000000800dcb50       0x90 /home/boffo/usr7/rush/game/OS/libos.a(picfuncs.o)
 .rodata        0x00000000800dcbe0       0x20 /home/boffo/usr7/rush/game/OS/libos.a(sst_date.o)
                0x00000000800dcbe0                GUTS_LINK_TIME
 .rodata        0x00000000800dcc00       0xe0 /home/boffo/usr7/rush/game/OS/libos.a(qio_uart.o)
 .rodata        0x00000000800dcce0      0x190 /home/boffo/usr7/rush/game/OS/libos.a(phx_rtc.o)
 .rodata        0x00000000800dce70       0x20 /home/boffo/usr7/rush/game/OS/libos.a(smc_rx.o)
 .rodata        0x00000000800dce90       0x40 /usr/local/GUTS/3dfx/glide-rush2.7/libglide.a(gamma.o)
 .rodata        0x00000000800dced0       0xa0 /usr/local/GUTS/3dfx/glide-rush2.7/libglide.a(gglide.o)
                0x00000000800dced4                _minPCIFIFOFree
                0x00000000800dced0                _minMemFIFOFree
 .rodata        0x00000000800dcf70      0x1d0 /usr/local/GUTS/3dfx/glide-rush2.7/libglide.a(gsst.o)
 .rodata        0x00000000800dd140      0x2d0 /usr/local/GUTS/3dfx/glide-rush2.7/libglide.a(gtex.o)
                0x00000000800dd140                aspect_bit_table
 .rodata        0x00000000800dd410       0x50 /usr/local/GUTS/3dfx/glide-rush2.7/libglide.a(gu.o)
 .rodata        0x00000000800dd460      0x140 /usr/local/GUTS/3dfx/glide-rush2.7/libglide.a(info.o)
 .rodata        0x00000000800dd5a0      0x140 /usr/local/GUTS/3dfx/glide-rush2.7/libglide.a(misc.o)
                0x00000000800dd660                PCI_INTERRUPT_LINE
                0x00000000800dd678                PCI_MIN_GNT
                0x00000000800dd5e8                PCI_CACHE_LINE_SIZE
                0x00000000800dd5d0                PCI_REVISION_ID
                0x00000000800dd60c                PCI_BIST
                0x00000000800dd630                PCI_BASE_ADDRESS_2
                0x00000000800dd618                PCI_BASE_ADDRESS_0
                0x00000000800dd5ac                PCI_DEVICE_ID
                0x00000000800dd654                PCI_BASE_ADDRESS_5
                0x00000000800dd5f4                PCI_LATENCY_TIMER
                0x00000000800dd5b8                PCI_COMMAND
                0x00000000800dd684                PCI_MAX_LAT
                0x00000000800dd648                PCI_BASE_ADDRESS_4
                0x00000000800dd5c4                PCI_STATUS
                0x00000000800dd5dc                PCI_CLASS_CODE
                0x00000000800dd5a0                PCI_VENDOR_ID
                0x00000000800dd66c                PCI_INTERRUPT_PIN
                0x00000000800dd600                PCI_HEADER_TYPE
                0x00000000800dd624                PCI_BASE_ADDRESS_1
                0x00000000800dd63c                PCI_BASE_ADDRESS_3
 .rodata        0x00000000800dd6e0      0x140 /usr/local/GUTS/3dfx/glide-rush2.7/libglide.a(sli.o)
 .rodata        0x00000000800dd820      0x410 /usr/local/GUTS/3dfx/glide-rush2.7/libglide.a(sst1init.o)
                0x00000000800dd850                SST1_PCI_VCLK_ENABLE
                0x00000000800dd82c                SST1_PCI_BUS_SNOOP0
                0x00000000800dd85c                SST1_PCI_VCLK_DISABLE
                0x00000000800dd838                SST1_PCI_BUS_SNOOP1
                0x00000000800dd844                SST1_PCI_CFG_STATUS
                0x00000000800dd820                SST1_PCI_INIT_ENABLE
 .rodata        0x00000000800ddc30       0x80 /usr/local/GUTS/3dfx/glide-rush2.7/libglide.a(util.o)
 .rodata        0x00000000800ddcb0      0x950 /usr/local/GUTS/3dfx/glide-rush2.7/libglide.a(video.o)
                0x00000000800ddcf8                SST_VREZ_336X240_60
                0x00000000800ddf38                SST_VREZ_512X400_60
                0x00000000800de058                SST_VREZ_640X400_120
                0x00000000800dde18                SST_VREZ_512X384_72
                0x00000000800de178                SST_VREZ_640X480_120
                0x00000000800de0a0                SST_VREZ_640X480_60
                0x00000000800de1c0                SST_VREZ_800X600_60
                0x00000000800de208                SST_VREZ_800X600_75
                0x00000000800ddcb0                SST_VREZ_512X256_60
                0x00000000800de298                SST_VREZ_856X480_60
                0x00000000800de0e8                SST_VREZ_640X480_75
                0x00000000800dde60                SST_VREZ_512X384_75
                0x00000000800ddf80                SST_VREZ_640X400_60
                0x00000000800dddd0                SST_VREZ_512X384_60
                0x00000000800ddea8                SST_VREZ_512X384_85
                0x00000000800de130                SST_VREZ_640X480_85
                0x00000000800ddfc8                SST_VREZ_640X400_75
                0x00000000800ddd88                SST_VREZ_512X256_60_50i
                0x00000000800ddef0                SST_VREZ_512X384_120
                0x00000000800de2e0                SST_VREZ_960X720_60
                0x00000000800de010                SST_VREZ_640X400_85
                0x00000000800ddd40                SST_VREZ_400X240_60
                0x00000000800de250                SST_VREZ_800X600_85
 .rodata        0x00000000800de600      0x1c0 /usr/local/GUTS/3dfx/glide-rush2.7/libglide.a(dac.o)
 .rodata        0x00000000800de7c0      0x210 /usr/local/gnu/IRIX/mips-97q1/mipsel-elf/lib/libnsprintff.a(new_nvfprintf.o)
 .rodata        0x00000000800de9d0       0x30 /usr/local/gnu/IRIX/mips-97q1/mipsel-elf/lib/libmf.a(acos.o)
 .rodata        0x00000000800dea00       0x50 /usr/local/gnu/IRIX/mips-97q1/mipsel-elf/lib/libmf.a(exp.o)
 .rodata        0x00000000800dea50       0x50 /usr/local/gnu/IRIX/mips-97q1/mipsel-elf/lib/libmf.a(expf.o)
 .rodata        0x00000000800deaa0       0x10 /usr/local/gnu/IRIX/mips-97q1/mipsel-elf/lib/libmf.a(ldexp.o)
 .rodata        0x00000000800deab0       0x10 /usr/local/gnu/IRIX/mips-97q1/mipsel-elf/lib/libmf.a(pow.o)
 .rodata        0x00000000800deac0       0x10 /usr/local/gnu/IRIX/mips-97q1/mipsel-elf/lib/libmf.a(powf.o)
 .rodata        0x00000000800dead0       0x10 /usr/local/gnu/IRIX/mips-97q1/mipsel-elf/lib/libmf.a(sincosf.o)
 .rodata        0x00000000800deae0       0x10 /usr/local/gnu/IRIX/mips-97q1/mipsel-elf/lib/libmf.a(sqrt.o)
 .rodata        0x00000000800deaf0       0x20 /usr/local/gnu/IRIX/mips-97q1/mipsel-elf/lib/libmf.a(tanf.o)
 .rodata        0x00000000800deb10       0x10 /usr/local/gnu/IRIX/mips-97q1/mipsel-elf/lib/libmf.a(fmodf.o)
 .rodata        0x00000000800deb20       0x10 /usr/local/gnu/IRIX/mips-97q1/mipsel-elf/lib/libmf.a(frexp.o)
 .rodata        0x00000000800deb30       0x20 /usr/local/gnu/IRIX/mips-97q1/mipsel-elf/lib/libmf.a(log.o)
 .rodata        0x00000000800deb50      0x110 /usr/local/gnu/IRIX/mips-97q1/mipsel-elf/lib/libcf.a(ctype_.o)
                0x00000000800deb50                _ctype_
 .rodata        0x00000000800dec60      0x1d0 /usr/local/gnu/IRIX/mips-97q1/mipsel-elf/lib/libcf.a(cvt.o)
 .rodata        0x00000000800dee30       0x90 /usr/local/gnu/IRIX/mips-97q1/mipsel-elf/lib/libcf.a(ecvtbuf.o)
 .rodata        0x00000000800deec0       0xa0 /usr/local/gnu/IRIX/mips-97q1/mipsel-elf/lib/libcf.a(mprec.o)
                0x00000000800def44                __mprec_tinytens
                0x00000000800deecc                __mprec_tens
                0x00000000800def30                __mprec_bigtens
 .rodata        0x00000000800def60       0x10 /usr/local/gnu/IRIX/mips-97q1/mipsel-elf/lib/libcf.a(puts.o)
 .rodata        0x00000000800def70      0x210 /usr/local/gnu/IRIX/mips-97q1/mipsel-elf/lib/libcf.a(vfprintf.o)
 .rodata        0x00000000800df180      0x1c0 /usr/local/gnu/IRIX/mips-97q1/mipsel-elf/lib/libcf.a(ddtoa.o)
 .rodata        0x00000000800df340      0x100 /usr/local/gnu/IRIX/mips-97q1/mipsel-elf/lib/libgcc.a(_divdi3.o)
 .rodata        0x00000000800df440      0x100 /usr/local/gnu/IRIX/mips-97q1/mipsel-elf/lib/libgcc.a(_moddi3.o)
 .rodata        0x00000000800df540      0x100 /usr/local/gnu/IRIX/mips-97q1/mipsel-elf/lib/libgcc.a(_udivdi3.o)
 .rodata        0x00000000800df640      0x100 /usr/local/gnu/IRIX/mips-97q1/mipsel-elf/lib/libgcc.a(_umoddi3.o)
 *(.rodata1)
 *(.lit8)
 *(.lit4)
 *(.reginfo)
 .reginfo       0x00000000800df740       0x18 /home/boffo/usr7/rush/game/OS/phx_root.o
 .reginfo       0x00000000800df758       0x18 obj/root.o
 .reginfo       0x00000000800df770       0x18 obj/gameblk.o
 .reginfo       0x00000000800df788       0x18 obj/attract.o
 .reginfo       0x00000000800df7a0       0x18 obj/camera.o
 .reginfo       0x00000000800df7b8       0x18 obj/carsnd.o
 .reginfo       0x00000000800df7d0       0x18 obj/checkpoint.o
 .reginfo       0x00000000800df7e8       0x18 obj/cksum.o
 .reginfo       0x00000000800df800       0x18 obj/collision.o
 .reginfo       0x00000000800df818       0x18 obj/cpinit.o
 .reginfo       0x00000000800df830       0x18 obj/debug.o
 .reginfo       0x00000000800df848       0x18 obj/dis.o
 .reginfo       0x00000000800df860       0x18 obj/dnl.o
 .reginfo       0x00000000800df878       0x18 obj/drones.o
 .reginfo       0x00000000800df890       0x18 obj/fswheel.o
 .reginfo       0x00000000800df8a8       0x18 obj/game.o
 .reginfo       0x00000000800df8c0       0x18 obj/gamenet.o
 .reginfo       0x00000000800df8d8       0x18 obj/globals.o
 .reginfo       0x00000000800df8f0       0x18 obj/hiscore.o
 .reginfo       0x00000000800df908       0x18 obj/hud.o
 .reginfo       0x00000000800df920       0x18 obj/init.o
 .reginfo       0x00000000800df938       0x18 obj/math.o
 .reginfo       0x00000000800df950       0x18 obj/mathsubs.o
 .reginfo       0x00000000800df968       0x18 obj/maxpath.o
 .reginfo       0x00000000800df980       0x18 obj/mdrive.o
 .reginfo       0x00000000800df998       0x18 obj/menu_data.o
 .reginfo       0x00000000800df9b0       0x18 obj/menus.o
 .reginfo       0x00000000800df9c8       0x18 obj/model.o
 .reginfo       0x00000000800df9e0       0x18 obj/money.o
 .reginfo       0x00000000800df9f8       0x18 obj/moobs.o
 .reginfo       0x00000000800dfa10       0x18 obj/pdu.o
 .reginfo       0x00000000800dfa28       0x18 obj/pots.o
 .reginfo       0x00000000800dfa40       0x18 obj/resurrect.o
 .reginfo       0x00000000800dfa58       0x18 obj/select.o
 .reginfo       0x00000000800dfa70       0x18 obj/sounds.o
 .reginfo       0x00000000800dfa88       0x18 obj/stats.o
 .reginfo       0x00000000800dfaa0       0x18 obj/targets.o
 .reginfo       0x00000000800dfab8       0x18 obj/timint.o
 .reginfo       0x00000000800dfad0       0x18 obj/tourney.o
 .reginfo       0x00000000800dfae8       0x18 obj/visuals.o
 .reginfo       0x00000000800dfb00       0x18 obj/cars.o
 .reginfo       0x00000000800dfb18       0x18 obj/communic.o
 .reginfo       0x00000000800dfb30       0x18 obj/controls.o
 .reginfo       0x00000000800dfb48       0x18 obj/d3math.o
 .reginfo       0x00000000800dfb60       0x18 obj/drivetra.o
 .reginfo       0x00000000800dfb78       0x18 obj/drivsym.o
 .reginfo       0x00000000800dfb90       0x18 obj/initiali.o
 .reginfo       0x00000000800dfba8       0x18 obj/reckon.o
 .reginfo       0x00000000800dfbc0       0x18 obj/road.o
 .reginfo       0x00000000800dfbd8       0x18 obj/stree.o
 .reginfo       0x00000000800dfbf0       0x18 obj/tires.o
 .reginfo       0x00000000800dfc08       0x18 obj/unitvecs.o
 .reginfo       0x00000000800dfc20       0x18 obj/vecmath.o
 .reginfo       0x00000000800dfc38       0x18 obj/world.o
 .reginfo       0x00000000800dfc50       0x18 obj/anim.o
 .reginfo       0x00000000800dfc68       0x18 obj/balloon.o
 .reginfo       0x00000000800dfc80       0x18 obj/blit.o
 .reginfo       0x00000000800dfc98       0x18 obj/error.o
 .reginfo       0x00000000800dfcb0       0x18 obj/fmath.o
 .reginfo       0x00000000800dfcc8       0x18 obj/font.o
 .reginfo       0x00000000800dfce0       0x18 obj/hdrive.o
 .reginfo       0x00000000800dfcf8       0x18 obj/mem.o
 .reginfo       0x00000000800dfd10       0x18 obj/mole.o
 .reginfo       0x00000000800dfd28       0x18 obj/mole_info.o
 .reginfo       0x00000000800dfd40       0x18 obj/timer.o
 .reginfo       0x00000000800dfd58       0x18 obj/strings.o
 .reginfo       0x00000000800dfd70       0x18 /home/boffo/usr7/rush/game/MB/zmb.a(mb_poly.o)
 .reginfo       0x00000000800dfd88       0x18 /home/boffo/usr7/rush/game/MB/zmb.a(mb_lights.o)
 .reginfo       0x00000000800dfda0       0x18 /home/boffo/usr7/rush/game/MB/zmb.a(mb_main.o)
 .reginfo       0x00000000800dfdb8       0x18 /home/boffo/usr7/rush/game/MB/zmb.a(mb_objects.o)
 .reginfo       0x00000000800dfdd0       0x18 /home/boffo/usr7/rush/game/MB/zmb.a(mb_tex.o)
 .reginfo       0x00000000800dfde8       0x18 /home/boffo/usr7/rush/game/MB/zmb.a(mb_state.o)
 .reginfo       0x00000000800dfe00       0x18 /home/boffo/usr7/rush/game/MB/zmb.a(mb_blit.o)
 .reginfo       0x00000000800dfe18       0x18 /home/boffo/usr7/rush/game/MB/zmb.a(mb_struct.o)
 .reginfo       0x00000000800dfe30       0x18 /home/boffo/usr7/rush/game/MB/zmb.a(mb_model.o)
 .reginfo       0x00000000800dfe48       0x18 /home/boffo/usr7/rush/game/MB/zmb.a(mb_util.o)
 .reginfo       0x00000000800dfe60       0x18 /home/boffo/usr7/rush/game/MB/zmb.a(mb_camera.o)
 .reginfo       0x00000000800dfe78       0x18 /home/boffo/usr7/rush/game/MB/zmb.a(mb_math.o)
 .reginfo       0x00000000800dfe90       0x18 /home/boffo/usr7/rush/game/MB/zmb.a(mb_simpleclip.o)
 .reginfo       0x00000000800dfea8       0x18 /home/boffo/usr7/rush/game/MB/zmb.a(mb_simple.o)
 .reginfo       0x00000000800dfec0       0x18 /home/boffo/usr7/rush/game/OS/libos.a(phx_shims.o)
 .reginfo       0x00000000800dfed8       0x18 /home/boffo/usr7/rush/game/OS/libos.a(idtc4000.o)
 .reginfo       0x00000000800dfef0       0x18 /home/boffo/usr7/rush/game/OS/libos.a(fexcp.o)
 .reginfo       0x00000000800dff08       0x18 /home/boffo/usr7/rush/game/OS/libos.a(memcpyrxk.o)
 .reginfo       0x00000000800dff20       0x18 /home/boffo/usr7/rush/game/OS/libos.a(phx_time.o)
 .reginfo       0x00000000800dff38       0x18 /home/boffo/usr7/rush/game/OS/libos.a(dispatch.o)
 .reginfo       0x00000000800dff50       0x18 /home/boffo/usr7/rush/game/OS/libos.a(selftest.o)
 .reginfo       0x00000000800dff68       0x18 /home/boffo/usr7/rush/game/OS/libos.a(pm.o)
 .reginfo       0x00000000800dff80       0x18 /home/boffo/usr7/rush/game/OS/libos.a(eedrive.o)
 .reginfo       0x00000000800dff98       0x18 /home/boffo/usr7/rush/game/OS/libos.a(cdec_hex.o)
 .reginfo       0x00000000800dffb0       0x18 /home/boffo/usr7/rush/game/OS/libos.a(random.o)
 .reginfo       0x00000000800dffc8       0x18 /home/boffo/usr7/rush/game/OS/libos.a(stats.o)
 .reginfo       0x00000000800dffe0       0x18 /home/boffo/usr7/rush/game/OS/libos.a(mallocr.o)
 .reginfo       0x00000000800dfff8       0x18 /home/boffo/usr7/rush/game/OS/libos.a(audio.o)
 .reginfo       0x00000000800e0010       0x18 /home/boffo/usr7/rush/game/OS/libos.a(phx_coin.o)
 .reginfo       0x00000000800e0028       0x18 /home/boffo/usr7/rush/game/OS/libos.a(pots.o)
 .reginfo       0x00000000800e0040       0x18 /home/boffo/usr7/rush/game/OS/libos.a(gamedefs.o)
 .reginfo       0x00000000800e0058       0x18 /home/boffo/usr7/rush/game/OS/libos.a(qio_rmt.o)
 .reginfo       0x00000000800e0070       0x18 /home/boffo/usr7/rush/game/OS/libos.a(sst_vid.o)
 .reginfo       0x00000000800e0088       0x18 /home/boffo/usr7/rush/game/OS/libos.a(sst_text.o)
 .reginfo       0x00000000800e00a0       0x18 /home/boffo/usr7/rush/game/OS/libos.a(sst_an.o)
 .reginfo       0x00000000800e00b8       0x18 /home/boffo/usr7/rush/game/OS/libos.a(phx_stubs.o)
 .reginfo       0x00000000800e00d0       0x18 /home/boffo/usr7/rush/game/OS/libos.a(ram_test.o)
 .reginfo       0x00000000800e00e8       0x18 /home/boffo/usr7/rush/game/OS/libos.a(mem_test.o)
 .reginfo       0x00000000800e0100       0x18 /home/boffo/usr7/rush/game/OS/libos.a(scope.o)
 .reginfo       0x00000000800e0118       0x18 /home/boffo/usr7/rush/game/OS/libos.a(entry.o)
 .reginfo       0x00000000800e0130       0x18 /home/boffo/usr7/rush/game/OS/libos.a(menus.o)
 .reginfo       0x00000000800e0148       0x18 /home/boffo/usr7/rush/game/OS/libos.a(swt_test.o)
 .reginfo       0x00000000800e0160       0x18 /home/boffo/usr7/rush/game/OS/libos.a(snd_test.o)
 .reginfo       0x00000000800e0178       0x18 /home/boffo/usr7/rush/game/OS/libos.a(qio.o)
 .reginfo       0x00000000800e0190       0x18 /home/boffo/usr7/rush/game/OS/libos.a(fsys.o)
 .reginfo       0x00000000800e01a8       0x18 /home/boffo/usr7/rush/game/OS/libos.a(qio_errs.o)
 .reginfo       0x00000000800e01c0       0x18 /home/boffo/usr7/rush/game/OS/libos.a(phx_ide.o)
 .reginfo       0x00000000800e01d8       0x18 /home/boffo/usr7/rush/game/OS/libos.a(phx_hdshims.o)
 .reginfo       0x00000000800e01f0       0x18 /home/boffo/usr7/rush/game/OS/libos.a(net_test.o)
 .reginfo       0x00000000800e0208       0x18 /home/boffo/usr7/rush/game/OS/libos.a(smc_putstr.o)
 .reginfo       0x00000000800e0220       0x18 /home/boffo/usr7/rush/game/OS/libos.a(smc_main.o)
 .reginfo       0x00000000800e0238       0x18 /home/boffo/usr7/rush/game/OS/libos.a(net_link.o)
 .reginfo       0x00000000800e0250       0x18 /home/boffo/usr7/rush/game/OS/libos.a(smc_tx.o)
 .reginfo       0x00000000800e0268       0x18 /home/boffo/usr7/rush/game/OS/libos.a(smc_intv.o)
 .reginfo       0x00000000800e0280       0x18 /home/boffo/usr7/rush/game/OS/libos.a(smc_dma.o)
 .reginfo       0x00000000800e0298       0x18 /home/boffo/usr7/rush/game/OS/libos.a(wms_ioasic.o)
 .reginfo       0x00000000800e02b0       0x18 /home/boffo/usr7/rush/game/OS/libos.a(wms_gt64010.o)
 .reginfo       0x00000000800e02c8       0x18 /home/boffo/usr7/rush/game/OS/libos.a(wms_pciio.o)
 .reginfo       0x00000000800e02e0       0x18 /home/boffo/usr7/rush/game/OS/libos.a(picfuncs.o)
 .reginfo       0x00000000800e02f8       0x18 /home/boffo/usr7/rush/game/OS/libos.a(sst_date.o)
 .reginfo       0x00000000800e0310       0x18 /home/boffo/usr7/rush/game/OS/libos.a(qio_uart.o)
 .reginfo       0x00000000800e0328       0x18 /home/boffo/usr7/rush/game/OS/libos.a(phx_rtc.o)
 .reginfo       0x00000000800e0340       0x18 /home/boffo/usr7/rush/game/OS/libos.a(nsc_pcishim.o)
 .reginfo       0x00000000800e0358       0x18 /home/boffo/usr7/rush/game/OS/libos.a(smc_rx.o)
 .reginfo       0x00000000800e0370       0x18 /usr/local/GUTS/3dfx/glide-rush2.7/libglide.a(gamma.o)
 .reginfo       0x00000000800e0388       0x18 /usr/local/GUTS/3dfx/glide-rush2.7/libglide.a(gglide.o)
 .reginfo       0x00000000800e03a0       0x18 /usr/local/GUTS/3dfx/glide-rush2.7/libglide.a(glfb.o)
 .reginfo       0x00000000800e03b8       0x18 /usr/local/GUTS/3dfx/glide-rush2.7/libglide.a(gsst.o)
 .reginfo       0x00000000800e03d0       0x18 /usr/local/GUTS/3dfx/glide-rush2.7/libglide.a(gtex.o)
 .reginfo       0x00000000800e03e8       0x18 /usr/local/GUTS/3dfx/glide-rush2.7/libglide.a(gu.o)
 .reginfo       0x00000000800e0400       0x18 /usr/local/GUTS/3dfx/glide-rush2.7/libglide.a(info.o)
 .reginfo       0x00000000800e0418       0x18 /usr/local/GUTS/3dfx/glide-rush2.7/libglide.a(misc.o)
 .reginfo       0x00000000800e0430       0x18 /usr/local/GUTS/3dfx/glide-rush2.7/libglide.a(sli.o)
 .reginfo       0x00000000800e0448       0x18 /usr/local/GUTS/3dfx/glide-rush2.7/libglide.a(sst1init.o)
 .reginfo       0x00000000800e0460       0x18 /usr/local/GUTS/3dfx/glide-rush2.7/libglide.a(trifom.o)
 .reginfo       0x00000000800e0478       0x18 /usr/local/GUTS/3dfx/glide-rush2.7/libglide.a(util.o)
 .reginfo       0x00000000800e0490       0x18 /usr/local/GUTS/3dfx/glide-rush2.7/libglide.a(video.o)
 .reginfo       0x00000000800e04a8       0x18 /usr/local/GUTS/3dfx/glide-rush2.7/libglide.a(dac.o)
 .reginfo       0x00000000800e04c0       0x18 /usr/local/GUTS/3dfx/glide-rush2.7/libglide.a(gdraw.o)
 .reginfo       0x00000000800e04d8       0x18 /usr/local/GUTS/3dfx/glide-rush2.7/libglide.a(gerror.o)
 .reginfo       0x00000000800e04f0       0x18 /usr/local/GUTS/3dfx/glide-rush2.7/libglide.a(gxdraw.o)
 .reginfo       0x00000000800e0508       0x18 /usr/local/gnu/IRIX/mips-97q1/mipsel-elf/lib/libnsprintff.a(new_nvfprintf.o)
 .reginfo       0x00000000800e0520       0x18 /usr/local/gnu/IRIX/mips-97q1/mipsel-elf/lib/libnsprintff.a(nsprintf.o)
 .reginfo       0x00000000800e0538       0x18 /usr/local/gnu/IRIX/mips-97q1/mipsel-elf/lib/libmf.a(acos.o)
 .reginfo       0x00000000800e0550       0x18 /usr/local/gnu/IRIX/mips-97q1/mipsel-elf/lib/libmf.a(atan2f.o)
 .reginfo       0x00000000800e0568       0x18 /usr/local/gnu/IRIX/mips-97q1/mipsel-elf/lib/libmf.a(atanf.o)
 .reginfo       0x00000000800e0580       0x18 /usr/local/gnu/IRIX/mips-97q1/mipsel-elf/lib/libmf.a(exp.o)
 .reginfo       0x00000000800e0598       0x18 /usr/local/gnu/IRIX/mips-97q1/mipsel-elf/lib/libmf.a(expf.o)
 .reginfo       0x00000000800e05b0       0x18 /usr/local/gnu/IRIX/mips-97q1/mipsel-elf/lib/libmf.a(fabs.o)
 .reginfo       0x00000000800e05c8       0x18 /usr/local/gnu/IRIX/mips-97q1/mipsel-elf/lib/libmf.a(infinity.o)
 .reginfo       0x00000000800e05e0       0x18 /usr/local/gnu/IRIX/mips-97q1/mipsel-elf/lib/libmf.a(ldexp.o)
 .reginfo       0x00000000800e05f8       0x18 /usr/local/gnu/IRIX/mips-97q1/mipsel-elf/lib/libmf.a(modf.o)
 .reginfo       0x00000000800e0610       0x18 /usr/local/gnu/IRIX/mips-97q1/mipsel-elf/lib/libmf.a(modff.o)
 .reginfo       0x00000000800e0628       0x18 /usr/local/gnu/IRIX/mips-97q1/mipsel-elf/lib/libmf.a(pow.o)
 .reginfo       0x00000000800e0640       0x18 /usr/local/gnu/IRIX/mips-97q1/mipsel-elf/lib/libmf.a(powf.o)
 .reginfo       0x00000000800e0658       0x18 /usr/local/gnu/IRIX/mips-97q1/mipsel-elf/lib/libmf.a(sincosf.o)
 .reginfo       0x00000000800e0670       0x18 /usr/local/gnu/IRIX/mips-97q1/mipsel-elf/lib/libmf.a(sqrt.o)
 .reginfo       0x00000000800e0688       0x18 /usr/local/gnu/IRIX/mips-97q1/mipsel-elf/lib/libmf.a(tanf.o)
 .reginfo       0x00000000800e06a0       0x18 /usr/local/gnu/IRIX/mips-97q1/mipsel-elf/lib/libmf.a(floor.o)
 .reginfo       0x00000000800e06b8       0x18 /usr/local/gnu/IRIX/mips-97q1/mipsel-elf/lib/libmf.a(fmodf.o)
 .reginfo       0x00000000800e06d0       0x18 /usr/local/gnu/IRIX/mips-97q1/mipsel-elf/lib/libmf.a(frexp.o)
 .reginfo       0x00000000800e06e8       0x18 /usr/local/gnu/IRIX/mips-97q1/mipsel-elf/lib/libmf.a(log.o)
 .reginfo       0x00000000800e0700       0x18 /usr/local/gnu/IRIX/mips-97q1/mipsel-elf/lib/libcf.a(abs.o)
 .reginfo       0x00000000800e0718       0x18 /usr/local/gnu/IRIX/mips-97q1/mipsel-elf/lib/libcf.a(atoi.o)
 .reginfo       0x00000000800e0730       0x18 /usr/local/gnu/IRIX/mips-97q1/mipsel-elf/lib/libcf.a(bsearch.o)
 .reginfo       0x00000000800e0748       0x18 /usr/local/gnu/IRIX/mips-97q1/mipsel-elf/lib/libcf.a(callocr.o)
 .reginfo       0x00000000800e0760       0x18 /usr/local/gnu/IRIX/mips-97q1/mipsel-elf/lib/libcf.a(ctype_.o)
 .reginfo       0x00000000800e0778       0x18 /usr/local/gnu/IRIX/mips-97q1/mipsel-elf/lib/libcf.a(cvt.o)
 .reginfo       0x00000000800e0790       0x18 /usr/local/gnu/IRIX/mips-97q1/mipsel-elf/lib/libcf.a(ecvtbuf.o)
 .reginfo       0x00000000800e07a8       0x18 /usr/local/gnu/IRIX/mips-97q1/mipsel-elf/lib/libcf.a(errno.o)
 .reginfo       0x00000000800e07c0       0x18 /usr/local/gnu/IRIX/mips-97q1/mipsel-elf/lib/libcf.a(fopen.o)
 .reginfo       0x00000000800e07d8       0x18 /usr/local/gnu/IRIX/mips-97q1/mipsel-elf/lib/libcf.a(fseek.o)
 .reginfo       0x00000000800e07f0       0x18 /usr/local/gnu/IRIX/mips-97q1/mipsel-elf/lib/libcf.a(fstatr.o)
 .reginfo       0x00000000800e0808       0x18 /usr/local/gnu/IRIX/mips-97q1/mipsel-elf/lib/libcf.a(fwrite.o)
 .reginfo       0x00000000800e0820       0x18 /usr/local/gnu/IRIX/mips-97q1/mipsel-elf/lib/libcf.a(makebuf.o)
 .reginfo       0x00000000800e0838       0x18 /usr/local/gnu/IRIX/mips-97q1/mipsel-elf/lib/libcf.a(memcmp.o)
 .reginfo       0x00000000800e0850       0x18 /usr/local/gnu/IRIX/mips-97q1/mipsel-elf/lib/libcf.a(memmove.o)
 .reginfo       0x00000000800e0868       0x18 /usr/local/gnu/IRIX/mips-97q1/mipsel-elf/lib/libcf.a(mprec.o)
 .reginfo       0x00000000800e0880       0x18 /usr/local/gnu/IRIX/mips-97q1/mipsel-elf/lib/libcf.a(printf.o)
 .reginfo       0x00000000800e0898       0x18 /usr/local/gnu/IRIX/mips-97q1/mipsel-elf/lib/libcf.a(puts.o)
 .reginfo       0x00000000800e08b0       0x18 /usr/local/gnu/IRIX/mips-97q1/mipsel-elf/lib/libcf.a(qsort.o)
 .reginfo       0x00000000800e08c8       0x18 /usr/local/gnu/IRIX/mips-97q1/mipsel-elf/lib/libcf.a(refill.o)
 .reginfo       0x00000000800e08e0       0x18 /usr/local/gnu/IRIX/mips-97q1/mipsel-elf/lib/libcf.a(stdio.o)
 .reginfo       0x00000000800e08f8       0x18 /usr/local/gnu/IRIX/mips-97q1/mipsel-elf/lib/libcf.a(strcat.o)
 .reginfo       0x00000000800e0910       0x18 /usr/local/gnu/IRIX/mips-97q1/mipsel-elf/lib/libcf.a(strchr.o)
 .reginfo       0x00000000800e0928       0x18 /usr/local/gnu/IRIX/mips-97q1/mipsel-elf/lib/libcf.a(strcmp.o)
 .reginfo       0x00000000800e0940       0x18 /usr/local/gnu/IRIX/mips-97q1/mipsel-elf/lib/libcf.a(strcpy.o)
 .reginfo       0x00000000800e0958       0x18 /usr/local/gnu/IRIX/mips-97q1/mipsel-elf/lib/libcf.a(strlen.o)
 .reginfo       0x00000000800e0970       0x18 /usr/local/gnu/IRIX/mips-97q1/mipsel-elf/lib/libcf.a(strncat.o)
 .reginfo       0x00000000800e0988       0x18 /usr/local/gnu/IRIX/mips-97q1/mipsel-elf/lib/libcf.a(strncmp.o)
 .reginfo       0x00000000800e09a0       0x18 /usr/local/gnu/IRIX/mips-97q1/mipsel-elf/lib/libcf.a(strncpy.o)
 .reginfo       0x00000000800e09b8       0x18 /usr/local/gnu/IRIX/mips-97q1/mipsel-elf/lib/libcf.a(strstr.o)
 .reginfo       0x00000000800e09d0       0x18 /usr/local/gnu/IRIX/mips-97q1/mipsel-elf/lib/libcf.a(strtol.o)
 .reginfo       0x00000000800e09e8       0x18 /usr/local/gnu/IRIX/mips-97q1/mipsel-elf/lib/libcf.a(strtoul.o)
 .reginfo       0x00000000800e0a00       0x18 /usr/local/gnu/IRIX/mips-97q1/mipsel-elf/lib/libcf.a(vfprintf.o)
 .reginfo       0x00000000800e0a18       0x18 /usr/local/gnu/IRIX/mips-97q1/mipsel-elf/lib/libcf.a(dtoa.o)
 .reginfo       0x00000000800e0a30       0x18 /usr/local/gnu/IRIX/mips-97q1/mipsel-elf/lib/libcf.a(fflush.o)
 .reginfo       0x00000000800e0a48       0x18 /usr/local/gnu/IRIX/mips-97q1/mipsel-elf/lib/libcf.a(filer.o)
 .reginfo       0x00000000800e0a60       0x18 /usr/local/gnu/IRIX/mips-97q1/mipsel-elf/lib/libcf.a(findfp.o)
 .reginfo       0x00000000800e0a78       0x18 /usr/local/gnu/IRIX/mips-97q1/mipsel-elf/lib/libcf.a(flags.o)
 .reginfo       0x00000000800e0a90       0x18 /usr/local/gnu/IRIX/mips-97q1/mipsel-elf/lib/libcf.a(fputc.o)
 .reginfo       0x00000000800e0aa8       0x18 /usr/local/gnu/IRIX/mips-97q1/mipsel-elf/lib/libcf.a(fputs.o)
 .reginfo       0x00000000800e0ac0       0x18 /usr/local/gnu/IRIX/mips-97q1/mipsel-elf/lib/libcf.a(fvwrite.o)
 .reginfo       0x00000000800e0ad8       0x18 /usr/local/gnu/IRIX/mips-97q1/mipsel-elf/lib/libcf.a(fwalk.o)
 .reginfo       0x00000000800e0af0       0x18 /usr/local/gnu/IRIX/mips-97q1/mipsel-elf/lib/libcf.a(memchr.o)
 .reginfo       0x00000000800e0b08       0x18 /usr/local/gnu/IRIX/mips-97q1/mipsel-elf/lib/libcf.a(wbuf.o)
 .reginfo       0x00000000800e0b20       0x18 /usr/local/gnu/IRIX/mips-97q1/mipsel-elf/lib/libcf.a(wsetup.o)
 .reginfo       0x00000000800e0b38       0x18 /usr/local/gnu/IRIX/mips-97q1/mipsel-elf/lib/libcf.a(ddtoa.o)
 .reginfo       0x00000000800e0b50       0x18 /usr/local/gnu/IRIX/mips-97q1/mipsel-elf/lib/libgcc.a(_divdi3.o)
 .reginfo       0x00000000800e0b68       0x18 /usr/local/gnu/IRIX/mips-97q1/mipsel-elf/lib/libgcc.a(_moddi3.o)
 .reginfo       0x00000000800e0b80       0x18 /usr/local/gnu/IRIX/mips-97q1/mipsel-elf/lib/libgcc.a(_udivdi3.o)
 .reginfo       0x00000000800e0b98       0x18 /usr/local/gnu/IRIX/mips-97q1/mipsel-elf/lib/libgcc.a(_umoddi3.o)
 CREATE_OBJECT_SYMBOLS
                0x00000000800e0bb0                _etext=.

.data           0x00000000800e0bb0       0x60
 *(.data)
 .data          0x00000000800e0bb0       0x30 obj/gamenet.o
 .data          0x00000000800e0be0       0x30 obj/select.o
 *(.sdata)
                0x00000000800e0c10                text_end=.

.init
 *(.init)

.fini
 *(.fini)

.ctors
 *(.ctors)

.dtors
 *(.dtors)

.bss            0x00000000800e0c10   0x134270
                0x00000000800e8c10                _gp=(.+0x8000)
                0x00000000800e0c10                __bss_start=(.+0x0)
                0x00000000800e0c10                bss_start=(.+0x0)
                0x00000000800e0c10                _fbss=(.+0x0)
                0x00000000800e0c10                .=((.+0xf)&0xfffffffffffffff0)
                0x00000000800e0c10                _edata=(.+0x0)
 *(.bss)
 .bss           0x00000000800e0c10      0xca0 /home/boffo/usr7/rush/game/OS/phx_root.o
                0x00000000800e0ca8                interrupt_stack_limit
                0x00000000800e0c28                beg_static
                0x00000000800e0c98                ramv_tbl_end
                0x00000000800e0c2c                ramv_tbl
                0x00000000800e0ca0                exception_time
                0x00000000800e0c9c                restintp
                0x00000000800e18a8                interrupt_stack
                0x00000000800e0c10                cpu_params
                0x00000000800e0c98                savintp
 .bss           0x00000000800e18b0       0xf0 obj/attract.o
 .bss           0x00000000800e19a0       0xa0 obj/camera.o
 .bss           0x00000000800e1a40       0x10 obj/carsnd.o
 .bss           0x00000000800e1a50       0x10 obj/checkpoint.o
 .bss           0x00000000800e1a60       0x10 obj/debug.o
 .bss           0x00000000800e1a70      0xfa0 obj/dis.o
 .bss           0x00000000800e2a10       0x10 obj/dnl.o
 .bss           0x00000000800e2a20       0x30 obj/fswheel.o
 .bss           0x00000000800e2a50       0x10 obj/game.o
 .bss           0x00000000800e2a60      0x440 obj/gamenet.o
 .bss           0x00000000800e2ea0     0x3300 obj/hiscore.o
 .bss           0x00000000800e61a0      0x1b0 obj/hud.o
 .bss           0x00000000800e6350       0x30 obj/init.o
 .bss           0x00000000800e6380       0x20 obj/mdrive.o
 .bss           0x00000000800e63a0       0x10 obj/money.o
 .bss           0x00000000800e63b0       0x10 obj/moobs.o
 .bss           0x00000000800e63c0       0x30 obj/pdu.o
 .bss           0x00000000800e63f0       0x20 obj/pots.o
 .bss           0x00000000800e6410       0xd0 obj/select.o
 .bss           0x00000000800e64e0    0x22010 obj/sounds.o
 .bss           0x00000000801084f0     0x1720 obj/stats.o
 .bss           0x0000000080109c10      0x740 obj/targets.o
 .bss           0x000000008010a350       0x10 obj/timint.o
 .bss           0x000000008010a360       0x40 obj/tourney.o
 .bss           0x000000008010a3a0     0x30a0 obj/visuals.o
 .bss           0x000000008010d440       0x20 obj/drivsym.o
 .bss           0x000000008010d460       0x10 obj/world.o
 .bss           0x000000008010d470     0x6c60 obj/anim.o
 .bss           0x00000000801140d0       0x30 obj/blit.o
 .bss           0x0000000080114100      0x1a0 obj/error.o
 .bss           0x00000000801142a0       0x10 obj/fmath.o
 .bss           0x00000000801142b0       0x30 obj/timer.o
 .bss           0x00000000801142e0       0x10 obj/strings.o
 .bss           0x00000000801142f0       0x10 /home/boffo/usr7/rush/game/MB/zmb.a(mb_lights.o)
 .bss           0x0000000080114300       0x10 /home/boffo/usr7/rush/game/MB/zmb.a(mb_main.o)
 .bss           0x0000000080114310       0x20 /home/boffo/usr7/rush/game/MB/zmb.a(mb_tex.o)
 .bss           0x0000000080114330       0x10 /home/boffo/usr7/rush/game/MB/zmb.a(mb_simple.o)
 .bss           0x0000000080114340       0x20 /home/boffo/usr7/rush/game/OS/libos.a(phx_shims.o)
 .bss           0x0000000080114360       0x10 /home/boffo/usr7/rush/game/OS/libos.a(idtc4000.o)
                0x000000008011436c                dcache_linesize
                0x0000000080114368                dcache_size
                0x0000000080114364                icache_linesize
                0x0000000080114360                icache_size
 .bss           0x0000000080114370       0x50 /home/boffo/usr7/rush/game/OS/libos.a(phx_time.o)
 .bss           0x00000000801143c0       0x10 /home/boffo/usr7/rush/game/OS/libos.a(selftest.o)
 .bss           0x00000000801143d0      0x4f0 /home/boffo/usr7/rush/game/OS/libos.a(eedrive.o)
 .bss           0x00000000801148c0       0x10 /home/boffo/usr7/rush/game/OS/libos.a(random.o)
 .bss           0x00000000801148d0       0x10 /home/boffo/usr7/rush/game/OS/libos.a(stats.o)
 .bss           0x00000000801148e0       0xa0 /home/boffo/usr7/rush/game/OS/libos.a(mallocr.o)
 .bss           0x0000000080114980      0x140 /home/boffo/usr7/rush/game/OS/libos.a(audio.o)
 .bss           0x0000000080114ac0       0x50 /home/boffo/usr7/rush/game/OS/libos.a(phx_coin.o)
 .bss           0x0000000080114b10       0xb0 /home/boffo/usr7/rush/game/OS/libos.a(pots.o)
 .bss           0x0000000080114bc0       0x10 /home/boffo/usr7/rush/game/OS/libos.a(gamedefs.o)
 .bss           0x0000000080114bd0       0xa0 /home/boffo/usr7/rush/game/OS/libos.a(qio_rmt.o)
 .bss           0x0000000080114c70       0x70 /home/boffo/usr7/rush/game/OS/libos.a(sst_vid.o)
 .bss           0x0000000080114ce0     0x1ab0 /home/boffo/usr7/rush/game/OS/libos.a(sst_text.o)
 .bss           0x0000000080116790       0x10 /home/boffo/usr7/rush/game/OS/libos.a(ram_test.o)
 .bss           0x00000000801167a0       0x70 /home/boffo/usr7/rush/game/OS/libos.a(scope.o)
 .bss           0x0000000080116810       0x10 /home/boffo/usr7/rush/game/OS/libos.a(swt_test.o)
 .bss           0x0000000080116820       0x20 /home/boffo/usr7/rush/game/OS/libos.a(snd_test.o)
 .bss           0x0000000080116840      0xb40 /home/boffo/usr7/rush/game/OS/libos.a(qio.o)
 .bss           0x0000000080117380       0x10 /home/boffo/usr7/rush/game/OS/libos.a(fsys.o)
 .bss           0x0000000080117390       0xf0 /home/boffo/usr7/rush/game/OS/libos.a(phx_ide.o)
 .bss           0x0000000080117480       0x10 /home/boffo/usr7/rush/game/OS/libos.a(phx_hdshims.o)
 .bss           0x0000000080117490       0x40 /home/boffo/usr7/rush/game/OS/libos.a(net_test.o)
 .bss           0x00000000801174d0      0x440 /home/boffo/usr7/rush/game/OS/libos.a(net_link.o)
 .bss           0x0000000080117910       0x10 /home/boffo/usr7/rush/game/OS/libos.a(smc_tx.o)
 .bss           0x0000000080117920       0x40 /home/boffo/usr7/rush/game/OS/libos.a(wms_ioasic.o)
 .bss           0x0000000080117960       0x40 /home/boffo/usr7/rush/game/OS/libos.a(picfuncs.o)
 .bss           0x00000000801179a0       0x90 /home/boffo/usr7/rush/game/OS/libos.a(qio_uart.o)
 .bss           0x0000000080117a30       0x10 /usr/local/GUTS/3dfx/glide-rush2.7/libglide.a(gamma.o)
 .bss           0x0000000080117a40       0x10 /usr/local/GUTS/3dfx/glide-rush2.7/libglide.a(gglide.o)
 .bss           0x0000000080117a50       0x10 /usr/local/GUTS/3dfx/glide-rush2.7/libglide.a(gsst.o)
 .bss           0x0000000080117a60     0x8000 /usr/local/GUTS/3dfx/glide-rush2.7/libglide.a(info.o)
 .bss           0x000000008011fa60       0x10 /usr/local/GUTS/3dfx/glide-rush2.7/libglide.a(misc.o)
 .bss           0x000000008011fa70       0x10 /usr/local/GUTS/3dfx/glide-rush2.7/libglide.a(sli.o)
 .bss           0x000000008011fa80       0x10 /usr/local/GUTS/3dfx/glide-rush2.7/libglide.a(dac.o)
 *(.scommon)
 .scommon       0x000000008011fa90       0x13 obj/attract.o
                0x000000008011fa90                gContinuedGame
                0x000000008011fa91                explosion_state
                0x000000008011fa92                gPlayingFree
                0x000000008011fa93                gFreeGame
                0x000000008011fa94                gLastFunc
                0x000000008011fa98                explosion_time
                0x000000008011fa9c                attractFunc
                0x000000008011faa0                gTourneyJoin
                0x000000008011faa1                gStartDuringLoad
                0x000000008011faa2                skip
 *fill*         0x000000008011faa3 0x11000ea44
 .scommon       0x000000008011faa4       0x34 obj/camera.o
                0x000000008011faa4                old_rear_x
                0x000000008011faa8                view_3_time
                0x000000008011faac                rear_y
                0x000000008011fab0                rear_view_time
                0x000000008011fab4                gSusAvg
                0x000000008011fab8                view3_switch
                0x000000008011fabc                view
                0x000000008011fac0                old_vec0
                0x000000008011fac4                saveview
                0x000000008011fac8                gTireCnt
                0x000000008011facc                rear_x
                0x000000008011fad0                dbgZf
                0x000000008011fad4                dbgYf
 .scommon       0x000000008011fad8       0x48 obj/carsnd.o
                0x000000008011fad8                dbgRPMval
                0x000000008011fadc                rpm_fix
                0x000000008011fae0                dbgTORval
                0x000000008011fae4                dbgTORbias
                0x000000008011fae8                dbgRPMbias
                0x000000008011faec                temp_sound
                0x000000008011faf0                rdnoise_state
                0x000000008011faf8                dbgRPMscale
                0x000000008011fafc                dbgTORscale
                0x000000008011fb00                scrape_state
                0x000000008011fb08                wind_state
                0x000000008011fb10                count_num
                0x000000008011fb14                bump_time
                0x000000008011fb18                scrape_time
                0x000000008011fb1c                torque_fix
 .scommon       0x000000008011fb20       0x40 obj/checkpoint.o
                0x000000008011fb20                first_place_time
                0x000000008011fb24                num_path_points
                0x000000008011fb28                last_checkpoint_time
                0x000000008011fb2c                number_checkpoints
                0x000000008011fb30                total_time_box_time
                0x000000008011fb34                close_chkpnt
                0x000000008011fb36                cancel_mpath_lap
                0x000000008011fb38                index1
                0x000000008011fb3c                time_to_be_given
                0x000000008011fb40                lap_loop_distance
                0x000000008011fb44                global_last_cp
                0x000000008011fb48                index2
                0x000000008011fb4c                in_first_place
                0x000000008011fb50                old_last_cp_index
                0x000000008011fb54                path_point_index
                0x000000008011fb56                global_laps
                0x000000008011fb58                lap_loop_index
                0x000000008011fb5a                global_next_cp
                0x000000008011fb5c                total_time_given
 .scommon       0x000000008011fb60       0x48 obj/debug.o
                0x000000008011fb60                DBG_bar_scale
                0x000000008011fb64                DBG_mbscale
                0x000000008011fb68                DBG_offcnt8
                0x000000008011fb6c                gPal
                0x000000008011fb70                DBG_num_frame_blits
                0x000000008011fb74                DBG_count_roll
                0x000000008011fb78                DBG_msbtime
                0x000000008011fb7c                gLine
                0x000000008011fb80                gFlyTime
                0x000000008011fb84                xMgUvObj
                0x000000008011fb88                DBG_AG_magic
                0x000000008011fb8c                DBG_AG_debug_num
                0x000000008011fb90                gFlyYaw
                0x000000008011fb94                gErrnum
                0x000000008011fb98                DBG_lsbtime
                0x000000008011fb9c                gFlySpeed
                0x000000008011fba0                DBG_timebar_blits_setup
                0x000000008011fba4                DBG_last_count
 .scommon       0x000000008011fba8       0x70 obj/dis.o
                0x000000008011fba8                solo_flag
                0x000000008011fbac                nettime_synced
                0x000000008011fbb0                trying_mcast_channel
                0x000000008011fbb4                gTrackLocked
                0x000000008011fbb5                gFeedbackLevel
                0x000000008011fbb8                gCountDown
                0x000000008011fbbc                gNetDesc
                0x000000008011fbc0                gInThisGame
                0x000000008011fbc4                using_mcast_channel
                0x000000008011fbc8                gJoinInPossible
                0x000000008011fbcc                gPacketsSent
                0x000000008011fbd0                gPacketsRcvd
                0x000000008011fbd8                gComAddress
                0x000000008011fbde                gUseCatchup
                0x000000008011fbdf                gIgnoreScore
                0x000000008011fbe0                gTourneyTrack
                0x000000008011fbe4                gPacketsReject
                0x000000008011fbe8                dbgBCastCnt
                0x000000008011fbec                gAllTracksLocked
                0x000000008011fbed                gGameInited
                0x000000008011fbf0                gLiveNodes
                0x000000008011fbf4                gNextRequest
                0x000000008011fbf8                mcast_holdoff
                0x000000008011fbf9                gNetDelay
                0x000000008011fc00                gBroadcast
                0x000000008011fc06                gSimManager
                0x000000008011fc07                gErrOverride
                0x000000008011fc08                gThisEntity
                0x000000008011fc0c                gSimID
                0x000000008011fc10                gTourneyStart
                0x000000008011fc14                current_mcast_channel
 .scommon       0x000000008011fc18        0xc obj/dnl.o
                0x000000008011fc18                join_during_load
                0x000000008011fc1c                gTransitionFunc
                0x000000008011fc20                gLastModelLoaded
 .scommon       0x000000008011fc24       0x24 obj/fswheel.o
                0x000000008011fc24                last_swforce
                0x000000008011fc26                rawswvel
                0x000000008011fc28                playpos
                0x000000008011fc2a                swvel
                0x000000008011fc2c                recenter_flag
                0x000000008011fc2e                gFscale
                0x000000008011fc30                tottorque
                0x000000008011fc32                scaletorque
                0x000000008011fc34                velfres
                0x000000008011fc38                oldrawpos
                0x000000008011fc3c                rawswforce
                0x000000008011fc40                xxxpos
                0x000000008011fc44                avg_sw_force
 .scommon       0x000000008011fc48       0x3a obj/game.o
                0x000000008011fc48                angi
                0x000000008011fc4c                has_shifter
                0x000000008011fc4d                radio_station
                0x000000008011fc4e                crash_delay
                0x000000008011fc50                game_volume
                0x000000008011fc58                carsetup_flag
                0x000000008011fc60                demo_station
                0x000000008011fc61                next_radio_station
                0x000000008011fc62                old_game_volume
                0x000000008011fc64                flash_music_time
                0x000000008011fc68                in_game_mode
                0x000000008011fc6a                gForceOffset
                0x000000008011fc6c                which_engine
                0x000000008011fc70                gHeartTime
                0x000000008011fc74                start_announcer
                0x000000008011fc78                whats_your_name_time
                0x000000008011fc7c                playitagain_time
                0x000000008011fc80                gPulse
                0x000000008011fc81                gNeedCleanup
 *fill*         0x000000008011fc82 0x61000ea44
 .scommon       0x000000008011fc88      0x104 obj/globals.o
                0x000000008011fc88                track_opt
                0x000000008011fc8c                tourney_setup
                0x000000008011fc8d                damage_flag
                0x000000008011fc8e                cheats
                0x000000008011fc90                ResetLine
                0x000000008011fc94                gWheelVal
                0x000000008011fc98                edges
                0x000000008011fc9c                HAS_SHIFTER
                0x000000008011fc9e                gSWpos
                0x000000008011fca0                metric
                0x000000008011fca4                trailing_dedges
                0x000000008011fca8                trackno
                0x000000008011fcac                game_opt
                0x000000008011fcb0                drone_diff_save
                0x000000008011fcb4                m_edges
                0x000000008011fcb8                levels
                0x000000008011fcbc                gUpSeconds
                0x000000008011fcc0                m_levels
                0x000000008011fcc4                gSecPerCount
                0x000000008011fcc8                gGasRaw
                0x000000008011fcca                attract_effects_save
                0x000000008011fccb                attract_effects
                0x000000008011fccc                gGasVal
                0x000000008011fcd0                gWheelRaw
                0x000000008011fcd4                gClutchVal
                0x000000008011fcd8                this_node
                0x000000008011fcdc                guts_opt
                0x000000008011fce0                language
                0x000000008011fce4                m_dedges
                0x000000008011fce8                continue_opts
                0x000000008011fcea                demo_game
                0x000000008011fcec                gNetTimeToSec
                0x000000008011fcf0                swforce
                0x000000008011fcf2                gBrakeInt
                0x000000008011fcf8                track_len_save
                0x000000008011fd00                gClutchRaw
                0x000000008011fd02                win_opts
                0x000000008011fd04                target_drone
                0x000000008011fd06                num_humans
                0x000000008011fd08                gSWforce
                0x000000008011fd0c                trailing_edges
                0x000000008011fd10                lap_opt
                0x000000008011fd14                num_drones
                0x000000008011fd18                dlevels
                0x000000008011fd20                track_len
                0x000000008011fd28                drone_diff
                0x000000008011fd2c                gMsecPerCount
                0x000000008011fd30                difficulty_save
                0x000000008011fd38                gWheelInt
                0x000000008011fd3a                attract_music
                0x000000008011fd3c                mpath_edit
                0x000000008011fd40                ginvMsecPerCount
                0x000000008011fd44                gGasInt
                0x000000008011fd48                IRQTIME
                0x000000008011fd4c                dedges
                0x000000008011fd50                marker_flag
                0x000000008011fd52                last_track_loaded
                0x000000008011fd54                gClutchInt
                0x000000008011fd58                gBrakeVal
                0x000000008011fd5c                gMirrorMode
                0x000000008011fd60                gModeldatLock
                0x000000008011fd64                end_game_flag
                0x000000008011fd65                attract_music_save
                0x000000008011fd68                gFlyMode
                0x000000008011fd6c                in_tunnel
                0x000000008011fd6d                coast_flag
                0x000000008011fd70                difficulty
                0x000000008011fd78                m_dlevels
                0x000000008011fd7c                lap_flag
                0x000000008011fd7e                gThisNode
                0x000000008011fd7f                marker_flag_save
                0x000000008011fd80                record_buffer
                0x000000008011fd84                num_active_cars
                0x000000008011fd86                gBrakeRaw
                0x000000008011fd88                gstate
 .scommon       0x000000008011fd8c        0xd obj/hiscore.o
                0x000000008011fd8c                continue_carry
                0x000000008011fd8d                gEnteringName
                0x000000008011fd90                EntryBlit
                0x000000008011fd94                ScoreBlit
                0x000000008011fd98                continue_flag
 *fill*         0x000000008011fd99 0x31000ea44
 .scommon       0x000000008011fd9c       0x16 obj/hud.o
                0x000000008011fd9c                wrong_way
                0x000000008011fd9e                mBlitIndex
                0x000000008011fda0                gStrayAngle
                0x000000008011fda4                gCheckPtTimeout2
                0x000000008011fda8                gFinishX
                0x000000008011fdaa                gFinishY
                0x000000008011fdac                gHudMovie
                0x000000008011fdb0                gLapsLeft
 *fill*         0x000000008011fdb2 0x21000ea44
 .scommon       0x000000008011fdb4       0x2c obj/init.o
                0x000000008011fdb4                gGameExecTime
                0x000000008011fdb8                last_mast_time
                0x000000008011fdbc                mast_period
                0x000000008011fdc0                net_mem_start
                0x000000008011fdc4                mem_pool_start
                0x000000008011fdc8                gCurGameTime
                0x000000008011fdcc                game_block
                0x000000008011fdd0                gotvb
                0x000000008011fdd4                gLastGameTime
                0x000000008011fdd8                frames
                0x000000008011fddc                gGameLoopTime
 .scommon       0x000000008011fde0       0x7c obj/maxpath.o
                0x000000008011fde0                mpath_save
                0x000000008011fde4                cur_weight_drone
                0x000000008011fde6                marker_b
                0x000000008011fde8                change_vector
                0x000000008011fdf0                drone_done_count
                0x000000008011fdf2                cur_point_set
                0x000000008011fdf4                cur_hint_type
                0x000000008011fdf8                mpFlyDist
                0x000000008011fdfc                marker_point_set
                0x000000008011fdfe                cur_mpath_point_s16
                0x000000008011fe00                loop_stamp
                0x000000008011fe04                best_loop_time
                0x000000008011fe08                current_drone
                0x000000008011fe0a                maxpath_index
                0x000000008011fe0c                last_mpath_time
                0x000000008011fe10                gmpath_save2
                0x000000008011fe14                mpath_save2
                0x000000008011fe18                mpathnum
                0x000000008011fe1c                num_mpaths
                0x000000008011fe20                mpFlyTime
                0x000000008011fe24                gmpath_save
                0x000000008011fe28                weight_index
                0x000000008011fe2c                mpFlyYaw
                0x000000008011fe30                speed_delta
                0x000000008011fe34                mpath_save_num
                0x000000008011fe38                mprecording
                0x000000008011fe3c                dummy
                0x000000008011fe40                mpath
                0x000000008011fe44                mpFlySpeed
                0x000000008011fe48                gMaxPath
                0x000000008011fe4c                marker_a
                0x000000008011fe50                new_pathnum
                0x000000008011fe54                mpath_change_mode
                0x000000008011fe58                cur_mpath_point_f32
 .scommon       0x000000008011fe5c       0x18 obj/mdrive.o
                0x000000008011fe5c                sched_to_use
                0x000000008011fe5e                demo_checkpoint
                0x000000008011fe60                quat_index
                0x000000008011fe62                demo_path_point
                0x000000008011fe64                num_our_drones
                0x000000008011fe66                cur_drone
                0x000000008011fe68                last_m_dlevels
                0x000000008011fe6c                sched_index
                0x000000008011fe70                last_m_levels
 .scommon       0x000000008011fe74       0x12 obj/menus.o
                0x000000008011fe74                display_pos_data
                0x000000008011fe76                cp_edit
                0x000000008011fe78                menu_depth
                0x000000008011fe7a                disp_sw_bar
                0x000000008011fe7c                cur_menu
                0x000000008011fe80                cur_selection
                0x000000008011fe82                clear_pos_data
                0x000000008011fe84                num_selections
 *fill*         0x000000008011fe86 0x21000ea44
 .scommon       0x000000008011fe88       0x2c obj/model.o
                0x000000008011fe88                wheel
                0x000000008011fe8a                tmp
                0x000000008011fe8c                gSWdamp
                0x000000008011fe8e                gear
                0x000000008011fe90                gSWfrict
                0x000000008011fe92                amp
                0x000000008011fe94                ignition
                0x000000008011fe96                gSWtorque
                0x000000008011fe98                rpm
                0x000000008011fe9a                gas
                0x000000008011fe9c                autotrans
                0x000000008011fe9e                clutch
                0x000000008011fea0                carnum
                0x000000008011fea4                velsq
                0x000000008011fea8                oil
                0x000000008011feaa                brake
                0x000000008011feac                modelrun
                0x000000008011feae                crashthreshold
                0x000000008011feb0                startermotor
                0x000000008011feb2                clutchdepressed
 .scommon       0x000000008011feb4        0x5 obj/money.o
                0x000000008011feb4                numer
                0x000000008011feb6                credits
                0x000000008011feb8                denom
 *fill*         0x000000008011feb9 0x71000ea44
 .scommon       0x000000008011fec0       0x2c obj/moobs.o
                0x000000008011fec0                global_handle
                0x000000008011fec2                num_misc_sounds
                0x000000008011fec4                player_update_timer
                0x000000008011fec8                cur_misc_moobs
                0x000000008011feca                num_drone_moobs
                0x000000008011fecc                sound_time
                0x000000008011fece                sound_adjust
                0x000000008011fed0                drone_active
                0x000000008011fed8                buffer_average
                0x000000008011fee0                drone_handle
                0x000000008011fee8                num_samples
                0x000000008011feea                num_misc_moobs
 *fill*         0x000000008011feec 0x41000ea44
 .scommon       0x000000008011fef0       0x26 obj/pots.o
                0x000000008011fef0                check_limit_time
                0x000000008011fef4                man_gear
                0x000000008011fef6                WHEEL_MIN
                0x000000008011fef8                WHEEL_MAX
                0x000000008011fefc                last_dlevels
                0x000000008011ff00                last_levels
                0x000000008011ff08                ad8val
                0x000000008011ff10                init_pots_flag
                0x000000008011ff14                WHEEL_RNG
 .scommon       0x000000008011ff16        0x2 obj/resurrect.o
                0x000000008011ff16                quat_slot
 .scommon       0x000000008011ff18       0x40 obj/select.o
                0x000000008011ff18                negotiate_track
                0x000000008011ff1c                drop_out_time
                0x000000008011ff20                gCameraTransition
                0x000000008011ff24                last_countdown_time
                0x000000008011ff28                gCamFrames
                0x000000008011ff2a                re_negotiate
                0x000000008011ff2c                gNextCam
                0x000000008011ff2e                countdown_state
                0x000000008011ff30                gThisCar
                0x000000008011ff34                start_time
                0x000000008011ff38                negotiate_race
                0x000000008011ff3c                negotiate_time
                0x000000008011ff40                gClutchLocked
                0x000000008011ff42                num_pads
                0x000000008011ff44                gCurCam
                0x000000008011ff48                play_time
                0x000000008011ff4c                gWait4TrkPlaying
                0x000000008011ff4d                gCarLocked
                0x000000008011ff50                mirror_flag
                0x000000008011ff54                all_cars_locked_time
 .scommon       0x000000008011ff58        0x6 obj/sounds.o
                0x000000008011ff58                sounds_are_present
                0x000000008011ff5c                sound_index
 *fill*         0x000000008011ff5e 0x21000ea44
 .scommon       0x000000008011ff60       0x14 obj/stats.o
                0x000000008011ff60                STAT_games
                0x000000008011ff64                STAT_t2games
                0x000000008011ff68                STAT_t3games
                0x000000008011ff6c                STAT_t1games
                0x000000008011ff70                gGameStats
 .scommon       0x000000008011ff74        0x8 obj/targets.o
                0x000000008011ff74                gFogGroup
                0x000000008011ff78                num_finish_polys
 .scommon       0x000000008011ff7c        0xc obj/timint.o
                0x000000008011ff7c                last_irqtime
                0x000000008011ff80                upsec_inc
                0x000000008011ff84                last_irq_delta
 .scommon       0x000000008011ff88        0x4 obj/visuals.o
                0x000000008011ff88                spring_save
 .scommon       0x000000008011ff8c        0x4 obj/d3math.o
                0x000000008011ff8c                debug_sqrt
 .scommon       0x000000008011ff90        0x4 obj/road.o
                0x000000008011ff90                xSaveRoadInfo
 *fill*         0x000000008011ff94 0x41000ea44
 .scommon       0x000000008011ff98       0x66 obj/stree.o
                0x000000008011ff98                path
                0x000000008011ff9c                surf
                0x000000008011ffa0                path_loop
                0x000000008011ffa4                xxxSurfDist
                0x000000008011ffa8                xxxNumSurfs
                0x000000008011ffac                vlist
                0x000000008011ffb0                xDel1
                0x000000008011ffb4                path_end
                0x000000008011ffb8                xxxColForce
                0x000000008011ffc0                stempa
                0x000000008011ffc8                xInterp
                0x000000008011ffcc                xxxColDist
                0x000000008011ffd0                gRoadHead
                0x000000008011ffd4                xDel2
                0x000000008011ffd8                slist
                0x000000008011ffdc                path_start
                0x000000008011ffe0                svert
                0x000000008011ffe4                gRoadDat
                0x000000008011ffe8                stree
                0x000000008011fff0                stemp
                0x000000008011fff8                stempb
 *fill*         0x000000008011fffe 0x21000ea44
 .scommon       0x0000000080120000        0x4 obj/vecmath.o
                0x0000000080120000                invmag
 .scommon       0x0000000080120004        0xc obj/world.o
                0x0000000080120004                Worlddlidx
                0x0000000080120008                Current
                0x000000008012000c                WorldBase
 .scommon       0x0000000080120010        0xc obj/anim.o
                0x0000000080120010                ATime
                0x0000000080120014                AnimDebugObj
                0x0000000080120018                AnimDebugInfo
 .scommon       0x000000008012001c        0x4 obj/blit.o
                0x000000008012001c                NumBlits
 .scommon       0x0000000080120020        0x4 obj/error.o
                0x0000000080120020                running_standalone
 .scommon       0x0000000080120024        0x8 obj/fmath.o
                0x0000000080120024                SqrtCalls
                0x0000000080120028                TrigCalls
 .scommon       0x000000008012002c       0x10 obj/mem.o
                0x000000008012002c                mem_lock_count
                0x0000000080120030                mem_count
                0x0000000080120034                MEM_BYTES
                0x0000000080120038                mem_pool
 .scommon       0x000000008012003c       0x18 obj/timer.o
                0x000000008012003c                TIME
                0x0000000080120040                ZCLOCK
                0x0000000080120044                OSTimerFunc
                0x0000000080120048                ITIME
                0x000000008012004c                timerCount
                0x0000000080120050                SPF
 .scommon       0x0000000080120054        0x4 obj/strings.o
                0x0000000080120054                ClearScreen
 .scommon       0x0000000080120058        0xe /home/boffo/usr7/rush/game/MB/zmb.a(mb_poly.o)
                0x0000000080120058                PolyTypeZModInit
                0x0000000080120060                NumPolyInsts
                0x0000000080120064                PolyTypeZMod
 *fill*         0x0000000080120066 0x21000ea44
 .scommon       0x0000000080120068       0x10 /home/boffo/usr7/rush/game/MB/zmb.a(mb_lights.o)
                0x0000000080120068                LightHead
                0x0000000080120070                LightList
                0x0000000080120074                NumLights
 .scommon       0x0000000080120078       0x1c /home/boffo/usr7/rush/game/MB/zmb.a(mb_objects.o)
                0x0000000080120078                ObjHead
                0x0000000080120080                NumObjects
                0x0000000080120084                cam_yaw_cos
                0x0000000080120088                glob_spin
                0x000000008012008c                cam_yaw_sin
                0x0000000080120090                sort_object_count
 .scommon       0x0000000080120094        0x8 /home/boffo/usr7/rush/game/MB/zmb.a(mb_state.o)
                0x0000000080120094                LocalLightCnt
                0x0000000080120098                ZoidBGColor
 .scommon       0x000000008012009c        0x4 /home/boffo/usr7/rush/game/MB/zmb.a(mb_blit.o)
                0x000000008012009c                NumBlitInsts
 .scommon       0x00000000801200a0       0x48 /home/boffo/usr7/rush/game/MB/zmb.a(mb_model.o)
                0x00000000801200a0                lock_MEG6_hole
                0x00000000801200a4                mboxanimfuncs
                0x00000000801200a8                lock_pal_base
                0x00000000801200ac                lock_tex_base
                0x00000000801200b0                lock_objdef_count
                0x00000000801200b4                lock_MEG2_hole
                0x00000000801200b8                MEG4_hole
                0x00000000801200bc                nmboxanimfuncs
                0x00000000801200c0                lock_model_count
                0x00000000801200c4                lock_MEG4_hole
                0x00000000801200c8                lock_tex_holes
                0x00000000801200cc                tex_base
                0x00000000801200d0                MEG2_hole
                0x00000000801200d4                tex_holes
                0x00000000801200d8                lock_texdef_count
                0x00000000801200dc                model_count
                0x00000000801200e0                pal_base
                0x00000000801200e4                MEG6_hole
 .scommon       0x00000000801200e8       0x38 /home/boffo/usr7/rush/game/OS/libos.a(phx_shims.o)
                0x00000000801200e8                stack_watermark
                0x00000000801200ec                bitshd
                0x00000000801200f0                process_action_q_vec
                0x00000000801200f4                ms4vec
                0x00000000801200f8                pbase
                0x00000000801200fc                _guts_inest
                0x0000000080120100                prc_q_ast_vec
                0x0000000080120104                interrupt_count
                0x0000000080120108                _guts_astlvl
                0x000000008012010c                exception_count
                0x0000000080120110                pc_at_interrupt
                0x0000000080120114                _ice_pkts
                0x0000000080120118                process_ast_q_vec
                0x000000008012011c                prc_q_action_vec
 .scommon       0x0000000080120120       0x34 /home/boffo/usr7/rush/game/OS/libos.a(dispatch.o)
                0x0000000080120120                dm1intp
                0x0000000080120124                uartintp
                0x0000000080120128                tm3intp
                0x000000008012012c                ethintp
                0x0000000080120130                set_ipl_vec
                0x0000000080120134                cagevec
                0x0000000080120138                dm3intp
                0x000000008012013c                dm0intp
                0x0000000080120140                dbgintp
                0x0000000080120144                vsyintp
                0x0000000080120148                dm2intp
                0x000000008012014c                framevec
                0x0000000080120150                timervec
 .scommon       0x0000000080120154        0x4 /home/boffo/usr7/rush/game/OS/libos.a(selftest.o)
                0x0000000080120154                debug_mode
 .scommon       0x0000000080120158        0x4 /home/boffo/usr7/rush/game/OS/libos.a(eedrive.o)
                0x0000000080120158                eer_rtc
 *fill*         0x000000008012015c 0x41000ea44
 .scommon       0x0000000080120160       0x20 /home/boffo/usr7/rush/game/OS/libos.a(stats.o)
                0x0000000080120160                time_plgame
                0x0000000080120168                oldplaymask
                0x000000008012016c                last_eertc
                0x0000000080120170                updtimer
                0x0000000080120178                time_eachpl
 .scommon       0x0000000080120180       0x18 /home/boffo/usr7/rush/game/OS/libos.a(mallocr.o)
                0x0000000080120180                interrupt_reent
                0x0000000080120184                action_reent
                0x0000000080120188                qio_reent
                0x000000008012018c                mainline_reent
                0x0000000080120190                _impure_ptr
                0x0000000080120194                ast_reent
 .scommon       0x0000000080120198        0x6 /home/boffo/usr7/rush/game/OS/libos.a(audio.o)
                0x0000000080120198                ccmds
                0x000000008012019c                out_tidx
 *fill*         0x000000008012019e 0x21000ea44
 .scommon       0x00000000801201a0       0x1c /home/boffo/usr7/rush/game/OS/libos.a(sst_vid.o)
                0x00000000801201a0                CPU_SPEED
                0x00000000801201a4                vb_count
                0x00000000801201a8                cpu_ticks_usec
                0x00000000801201ac                tpllvec
                0x00000000801201b0                gameint
                0x00000000801201b4                MS4Field
                0x00000000801201b8                prc_delay_vec
 .scommon       0x00000000801201bc       0x1c /home/boffo/usr7/rush/game/OS/libos.a(sst_text.o)
                0x00000000801201bc                vid_str
                0x00000000801201c0                dbg_tclr
                0x00000000801201c4                dbg_stamp
                0x00000000801201c8                vid_refresh
                0x00000000801201cc                vid_stamp
                0x00000000801201d0                vid_tclr
                0x00000000801201d4                dbg_str
 .scommon       0x00000000801201d8        0x4 /home/boffo/usr7/rush/game/OS/libos.a(phx_stubs.o)
                0x00000000801201d8                GT64010rev
 .scommon       0x00000000801201dc       0x26 /home/boffo/usr7/rush/game/OS/libos.a(swt_test.o)
                0x00000000801201dc                ForceInit
                0x00000000801201e0                swpos
                0x00000000801201e4                dbswitch
                0x00000000801201e8                last_swpos
                0x00000000801201ec                last_sw
                0x00000000801201f0                mod_sw
                0x00000000801201f4                last_sw_val
                0x00000000801201f8                read_raw_sw_vec
                0x00000000801201fc                fake_controls
                0x0000000080120200                sw_val
 *fill*         0x0000000080120202 0x21000ea44
 .scommon       0x0000000080120204        0x4 /home/boffo/usr7/rush/game/OS/libos.a(phx_ide.o)
                0x0000000080120204                nsc_wait_vec
 .scommon       0x0000000080120208        0x4 /home/boffo/usr7/rush/game/OS/libos.a(phx_hdshims.o)
                0x0000000080120208                NumLSN
 .scommon       0x000000008012020c        0x4 /home/boffo/usr7/rush/game/OS/libos.a(net_test.o)
                0x000000008012020c                _smc_putstr_vec
 .scommon       0x0000000080120210       0x10 /home/boffo/usr7/rush/game/OS/libos.a(smc_dma.o)
                0x0000000080120210                smc_dma_tx_queue
                0x0000000080120214                smc_dma_queue
                0x0000000080120218                smc_dma_free
                0x000000008012021c                smc_dma_req
 .scommon       0x0000000080120220        0xc /usr/local/GUTS/3dfx/glide-rush2.7/libglide.a(gglide.o)
                0x0000000080120220                _GLIDE_STATE
                0x0000000080120224                _lastAddress
                0x0000000080120228                _SST
 .scommon       0x000000008012022c        0x8 /usr/local/GUTS/3dfx/glide-rush2.7/libglide.a(gsst.o)
                0x000000008012022c                grSstOpenLastRefresh
                0x0000000080120230                grSstOpenLastRez
 .scommon       0x0000000080120234        0xc /usr/local/GUTS/3dfx/glide-rush2.7/libglide.a(gu.o)
                0x0000000080120234                __gu_prim_current_vtx
                0x0000000080120238                __debugGets
                0x000000008012023c                __gu_prim_num_verts
 .scommon       0x0000000080120240        0x8 /usr/local/GUTS/3dfx/glide-rush2.7/libglide.a(misc.o)
                0x0000000080120240                sst_memfifo_min
                0x0000000080120244                pciErrorString
 .scommon       0x0000000080120248       0x34 /usr/local/GUTS/3dfx/glide-rush2.7/libglide.a(sst1init.o)
                0x0000000080120248                dacStructBase
                0x000000008012024c                iniDac
                0x0000000080120250                iniMemClk
                0x0000000080120254                boardsInSystem
                0x0000000080120258                sst1InitSliEnabled
                0x000000008012025c                sst1CurrentBoard
                0x0000000080120260                boardsFound
                0x0000000080120264                sst1InitSliSlaveVirtAddr
                0x0000000080120268                iniStackPtr
                0x000000008012026c                sst1InitDeviceNumber
                0x0000000080120270                iniVideo
                0x0000000080120274                envVarsBase
                0x0000000080120278                sst1InitUseVoodooFile
 .scommon       0x000000008012027c       0x2c /usr/local/GUTS/3dfx/glide-rush2.7/libglide.a(gdraw.o)
                0x000000008012027c                __gdraw_dyBC
                0x0000000080120280                _paramRegsPtr
                0x0000000080120284                __gdraw_ooarea
                0x0000000080120288                __gdraw_area
                0x000000008012028c                __gdraw_dyAB
                0x0000000080120290                aa_dadx
                0x0000000080120294                aa_dady
                0x0000000080120298                _packerHackAddress
                0x000000008012029c                __gdraw_dxAB
                0x00000000801202a0                aa_start
                0x00000000801202a4                __gdraw_dxBC
 .scommon       0x00000000801202a8        0x4 /usr/local/GUTS/3dfx/glide-rush2.7/libglide.a(gerror.o)
                0x00000000801202a8                GrErrorCallback
 .scommon       0x00000000801202ac        0x4 /usr/local/gnu/IRIX/mips-97q1/mipsel-elf/lib/libcf.a(errno.o)
                0x00000000801202ac                errno
 *(COMMON)
 COMMON         0x00000000801202b0       0x50 obj/camera.o
                0x00000000801202b0                cur_acc
                0x00000000801202c0                mcam
                0x00000000801202d0                fcam
 COMMON         0x0000000080120300      0x280 obj/carsnd.o
                0x0000000080120300                smoke_intensity
                0x0000000080120380                car_bump
                0x0000000080120400                scrch_state
                0x0000000080120500                skid_intensity
 COMMON         0x0000000080120580     0x4e82 obj/checkpoint.o
                0x0000000080120580                TrackCPs
                0x0000000080122d80                path_index
                0x0000000080123940                post_object
                0x0000000080123960                track_data
                0x0000000080123ba0                path_dist
                0x0000000080124760                CP_Track
                0x00000000801247a0                closest_cp_index
                0x00000000801247d0                path_to_maxpath
                0x0000000080125390                path_dist_index
                0x00000000801253c0                buf
 *fill*         0x0000000080125402 0xe1000ea44
 COMMON         0x0000000080125410      0x2a0 obj/debug.o
                0x0000000080125410                Xscale
                0x0000000080125430                gFlyUvs
                0x0000000080125460                dbgFogMinDist
                0x0000000080125480                DBG_fltinfo
                0x0000000080125550                dbgFogMaxLevel
                0x0000000080125570                gFlyPos
                0x0000000080125580                xMgUv
                0x00000000801255b0                dbgstr
                0x0000000080125600                xMgUvPos
                0x0000000080125610                DBG_frame_blit
                0x0000000080125630                dbgFogMaxDist
                0x0000000080125650                dbgFogColor
                0x0000000080125670                DBG_bar_blit
                0x0000000080125690                DBG_perf
 COMMON         0x00000000801256b0      0xec0 obj/dis.o
                0x00000000801256b0                carz
                0x0000000080125b90                gObjList
                0x0000000080126430                mcast_channel_time
                0x0000000080126450                gLink
                0x0000000080126530                mcast_channel
 COMMON         0x0000000080126570       0x50 obj/dnl.o
                0x0000000080126570                trkpath
 COMMON         0x00000000801265c0       0x40 obj/drones.o
                0x00000000801265c0                old_drone_scale
                0x00000000801265e0                old_boost
 COMMON         0x0000000080126600      0x1d4 obj/gamenet.o
                0x0000000080126600                rcvtime
                0x0000000080126620                gn_state
                0x00000000801267c0                GNerrcnt
 *fill*         0x00000000801267d4 0xc1000ea44
 COMMON         0x00000000801267e0     0xae00 obj/globals.o
                0x00000000801267e0                model
                0x000000008012e4f0                gCamPos
                0x000000008012e500                gCamUvs
                0x000000008012e530                drones
                0x000000008012e540                game_car
                0x00000000801315d0                humans
 COMMON         0x00000000801315e0       0x1c obj/hiscore.o
                0x00000000801315e0                sfontX
 *fill*         0x00000000801315fc 0x41000ea44
 COMMON         0x0000000080131600     0x2ea0 obj/maxpath.o
                0x0000000080131600                lastbrake
                0x0000000080131620                post_obj_index
                0x0000000080131650                last_save_dir
                0x00000000801316b0                mpctl
                0x0000000080131830                weight_table
                0x0000000080131d70                mpheader_tab
                0x0000000080131d90                mpstrbuf
                0x0000000080131e10                last_relpos
                0x0000000080132110                lastthrottle
                0x0000000080132130                lastwheel
                0x0000000080132150                last_rwr
                0x0000000080132450                mpFlyUvs
                0x0000000080132480                last_dir
                0x00000000801324e0                mpFlyPos
                0x00000000801324f0                mpath_active
                0x0000000080132510                mpaths
                0x0000000080132520                mpath_num
                0x0000000080132540                maxpath_dist
                0x00000000801334e0                mpath_tab
                0x0000000080133500                maxpath_to_path
 COMMON         0x00000000801344a0       0x50 obj/mdrive.o
                0x00000000801344a0                dr_camuvs
                0x00000000801344d0                dr_campos
                0x00000000801344e0                our_drones
 COMMON         0x00000000801344f0       0x48 obj/menus.o
                0x00000000801344f0                menu_txt_index
                0x0000000080134510                menu_tab
 *fill*         0x0000000080134538 0x81000ea44
 COMMON         0x0000000080134540      0x278 obj/moobs.o
                0x0000000080134540                misc_moobs
                0x0000000080134720                misc_sound
                0x0000000080134750                misc_handles
                0x0000000080134770                sound_table
 *fill*         0x00000000801347b8 0x81000ea44
 COMMON         0x00000000801347c0       0x30 obj/pots.o
                0x00000000801347c0                pot_tab
 COMMON         0x00000000801347f0       0x60 obj/resurrect.o
                0x00000000801347f0                save_pos
 COMMON         0x0000000080134850       0xc0 obj/select.o
                0x0000000080134850                negotiate_twant
                0x0000000080134870                negotiate_tphase
                0x0000000080134890                negotiate_tchan
                0x00000000801348d0                negotiate_ttime
                0x00000000801348f0                negotiate_tdata
 COMMON         0x0000000080134910       0x19 obj/sounds.o
                0x0000000080134910                snd_buf
                0x0000000080134920                car_sound_handle
 *fill*         0x0000000080134929 0x71000ea44
 COMMON         0x0000000080134930       0xb8 obj/stats.o
                0x0000000080134930                stat_str
                0x0000000080134980                curstat
 *fill*         0x00000000801349e8 0x81000ea44
 COMMON         0x00000000801349f0     0x8d00 obj/targets.o
                0x00000000801349f0                gFinishObject
                0x0000000080134a20                gFinishPoly
                0x0000000080134a50                gTargetList
 COMMON         0x000000008013d6f0       0x14 obj/tourney.o
                0x000000008013d6f0                gTourney
 *fill*         0x000000008013d704 0xc1000ea44
 COMMON         0x000000008013d710       0x18 obj/visuals.o
                0x000000008013d710                gCarModelNums
 *fill*         0x000000008013d728 0x81000ea44
 COMMON         0x000000008013d730       0x60 obj/reckon.o
                0x000000008013d730                skips
                0x000000008013d750                lastSend
                0x000000008013d770                sends
 COMMON         0x000000008013d790       0x3c obj/road.o
                0x000000008013d790                tuvs
                0x000000008013d7c0                BODYRWV
 *fill*         0x000000008013d7cc 0x41000ea44
 COMMON         0x000000008013d7d0      0x1dc obj/stree.o
                0x000000008013d7d0                p2uv
                0x000000008013d800                p1v
                0x000000008013d810                terpuv
                0x000000008013d840                terpv
                0x000000008013d850                ftemp
                0x000000008013d860                ftempa
                0x000000008013d870                temp
                0x000000008013d880                p3uv
                0x000000008013d8b0                p2v
                0x000000008013d8c0                p3v
                0x000000008013d8d0                p1uv
                0x000000008013d900                gpos
                0x000000008013d910                xFRpos
                0x000000008013d920                p0uv
                0x000000008013d950                xUv
                0x000000008013d980                fgpos
                0x000000008013d990                p0v
                0x000000008013d9a0                ftempb
 *fill*         0x000000008013d9ac 0x41000ea44
 COMMON         0x000000008013d9b0    0x20000 obj/world.o
                0x000000008013d9b0                WorldData
 COMMON         0x000000008015d9b0      0x120 obj/anim.o
                0x000000008015d9b0                NewAnimobjs
 COMMON         0x000000008015dad0        0xc obj/balloon.o
                0x000000008015dad0                BCDVec
 *fill*         0x000000008015dadc 0x41000ea44
 COMMON         0x000000008015dae0     0x4fb0 obj/blit.o
                0x000000008015dae0                BlitPtrs
                0x000000008015df90                Blits
 COMMON         0x0000000080162a90       0x18 obj/timer.o
                0x0000000080162a90                timer_list
 *fill*         0x0000000080162aa8 0x81000ea44
 COMMON         0x0000000080162ab0     0x4000 /home/boffo/usr7/rush/game/MB/zmb.a(mb_poly.o)
                0x0000000080162ab0                PolyInstanceList
 COMMON         0x0000000080166ab0       0xc0 /home/boffo/usr7/rush/game/MB/zmb.a(mb_lights.o)
                0x0000000080166ab0                LightUpdate
                0x0000000080166ac0                glob_light_vector
                0x0000000080166ad0                RamLightList
 COMMON         0x0000000080166b70       0x34 /home/boffo/usr7/rush/game/MB/zmb.a(mb_main.o)
                0x0000000080166b70                MboxStats
 *fill*         0x0000000080166ba4 0xc1000ea44
 COMMON         0x0000000080166bb0    0x43da0 /home/boffo/usr7/rush/game/MB/zmb.a(mb_objects.o)
                0x0000000080166bb0                mb_global
                0x0000000080166f40                eye_vec
                0x0000000080166f50                sort_objects
                0x0000000080176950                ObjInstanceFlags
                0x0000000080178950                ObjInstanceList
                0x00000000801a8950                ObjInstanceUpdate
 COMMON         0x00000000801aa950       0x90 /home/boffo/usr7/rush/game/MB/zmb.a(mb_state.o)
                0x00000000801aa950                LocalAmbient
                0x00000000801aa960                LocalLights
 COMMON         0x00000000801aa9e0     0x4fb0 /home/boffo/usr7/rush/game/MB/zmb.a(mb_blit.o)
                0x00000000801aa9e0                BlitInstanceList
 COMMON         0x00000000801af990      0x3c0 /home/boffo/usr7/rush/game/MB/zmb.a(mb_model.o)
                0x00000000801af990                texdef_ptrs
                0x00000000801afb90                model_addrs
                0x00000000801afbe0                objanim_ptrs
                0x00000000801afc70                model_tex_addrs
                0x00000000801afcc0                objdef_ptrs
 COMMON         0x00000000801afd50       0xd0 /home/boffo/usr7/rush/game/MB/zmb.a(mb_camera.o)
                0x00000000801afd50                ZoidCamInfo
 COMMON         0x00000000801afe20      0xfa8 /home/boffo/usr7/rush/game/MB/zmb.a(mb_math.o)
                0x00000000801afe20                INVSQRTAB
 *fill*         0x00000000801b0dc8 0x81000ea44
 COMMON         0x00000000801b0dd0    0x20000 /home/boffo/usr7/rush/game/MB/zmb.a(mb_simple.o)
                0x00000000801b0dd0                SimpleXVerts
 COMMON         0x00000000801d0dd0       0x20 /home/boffo/usr7/rush/game/OS/libos.a(phx_shims.o)
                0x00000000801d0dd0                irq_action
                0x00000000801d0de0                ast_action
 COMMON         0x00000000801d0df0       0x1c /home/boffo/usr7/rush/game/OS/libos.a(fexcp.o)
                0x00000000801d0df0                floating_exceptions
 *fill*         0x00000000801d0e0c 0x41000ea44
 COMMON         0x00000000801d0e10       0x14 /home/boffo/usr7/rush/game/OS/libos.a(phx_time.o)
                0x00000000801d0e10                __time_q
 *fill*         0x00000000801d0e24 0xc1000ea44
 COMMON         0x00000000801d0e30       0x24 /home/boffo/usr7/rush/game/OS/libos.a(eedrive.o)
                0x00000000801d0e30                eer_state
 *fill*         0x00000000801d0e54 0xc1000ea44
 COMMON         0x00000000801d0e60       0x10 /home/boffo/usr7/rush/game/OS/libos.a(stats.o)
                0x00000000801d0e60                time_residue
 COMMON         0x00000000801d0e70       0x20 /home/boffo/usr7/rush/game/OS/libos.a(audio.o)
                0x00000000801d0e70                out_trc
 COMMON         0x00000000801d0e90       0x4c /home/boffo/usr7/rush/game/OS/libos.a(sst_vid.o)
                0x00000000801d0e90                hwconfig
 *fill*         0x00000000801d0edc 0x41000ea44
 COMMON         0x00000000801d0ee0       0x3c /home/boffo/usr7/rush/game/OS/libos.a(swt_test.o)
                0x00000000801d0ee0                db_state
                0x00000000801d0f00                sw_state
 *fill*         0x00000000801d0f1c 0x41000ea44
 COMMON         0x00000000801d0f20      0x14c /home/boffo/usr7/rush/game/OS/libos.a(fsys.o)
                0x00000000801d0f20                volumes
 *fill*         0x00000000801d106c 0x41000ea44
 COMMON         0x00000000801d1070      0x170 /home/boffo/usr7/rush/game/OS/libos.a(smc_main.o)
                0x00000000801d1070                smc_data
                0x00000000801d11a0                pn_array
 COMMON         0x00000000801d11e0       0x50 /home/boffo/usr7/rush/game/OS/libos.a(net_link.o)
                0x00000000801d11e0                buffer_pool
                0x00000000801d1220                smc_act_q_elt
 COMMON         0x00000000801d1230       0x98 /home/boffo/usr7/rush/game/OS/libos.a(smc_dma.o)
                0x00000000801d1230                galileo_dma_act_q_elt
                0x00000000801d1240                dma_stats
 *fill*         0x00000000801d12c8 0x81000ea44
 COMMON         0x00000000801d12d0    0x31150 /usr/local/GUTS/3dfx/glide-rush2.7/libglide.a(gglide.o)
                0x00000000801d12d0                _SSTs
 COMMON         0x0000000080202420       0x28 /usr/local/GUTS/3dfx/glide-rush2.7/libglide.a(gsst.o)
                0x0000000080202420                _HW_CONFIGURATION
 *fill*         0x0000000080202448 0x81000ea44
 COMMON         0x0000000080202450     0x1770 /usr/local/GUTS/3dfx/glide-rush2.7/libglide.a(gu.o)
                0x0000000080202450                __gu_prim_vertex_array
 COMMON         0x0000000080203bc0      0x9c0 /usr/local/GUTS/3dfx/glide-rush2.7/libglide.a(sst1init.o)
                0x0000000080203bc0                iniStack
                0x0000000080203c00                sst1BoardInfo
 COMMON         0x0000000080204580    0x10900 /usr/local/GUTS/3dfx/glide-rush2.7/libglide.a(gdraw.o)
                0x0000000080204580                _paramRegs
                0x00000000802045c0                _regStruct
                0x0000000080204600                _regStructByHints
                0x0000000080204d80                _interpolantsByParamIndex
                0x0000000080214e80                .=((.+0x7)&0xfffffffffffffff8)
                0x0000000080214e80                bss_end=.
                0x0000000080214e80                _end=.
                0x0000000080214e80                end=.

.line
 *(.line)

.debug
 *(.debug)

.debug_sfnames
 *(.debug_sfnames)

.debug_srcinfo
 *(.debug_srcinfo)

.debug_macinfo
 *(.debug_macinfo)

.debug_pubnames
 *(.debug_pubnames)

.debug_aranges
 *(.debug_aranges)

.mdebug         0x0000000000000000   0x27f4a8
 *(.mdebug)
 .mdebug        0x0000000000000000    0x1c008 /home/boffo/usr7/rush/game/OS/phx_root.o
 .mdebug        0x000000000001c008      0x110 obj/root.o
 .mdebug        0x000000000001c118     0x1600 obj/gameblk.o
 .mdebug        0x000000000001d718    0x12a24 obj/attract.o
 .mdebug        0x000000000003013c     0xfa58 obj/camera.o
 .mdebug        0x000000000003fb94     0xe618 obj/carsnd.o
 .mdebug        0x000000000004e1ac    0x10f70 obj/checkpoint.o
 .mdebug        0x000000000005f11c     0x18d0 obj/cksum.o
 .mdebug        0x00000000000609ec     0xc4ac obj/collision.o
 .mdebug        0x000000000006ce98     0x4ac0 obj/cpinit.o
 .mdebug        0x0000000000071958    0x11dc4 obj/debug.o
 .mdebug        0x000000000008371c    0x13934 obj/dis.o
 .mdebug        0x0000000000097050     0xda78 obj/dnl.o
 .mdebug        0x00000000000a4ac8     0xc2b0 obj/drones.o
 .mdebug        0x00000000000b0d78     0xba68 obj/fswheel.o
 .mdebug        0x00000000000bc7e0     0xfcd4 obj/game.o
 .mdebug        0x00000000000cc4b4     0xc9e8 obj/gamenet.o
 .mdebug        0x00000000000d8e9c     0xb218 obj/globals.o
 .mdebug        0x00000000000e40b4    0x11158 obj/hiscore.o
 .mdebug        0x00000000000f520c     0xfd64 obj/hud.o
 .mdebug        0x0000000000104f70     0xb340 obj/init.o
 .mdebug        0x00000000001102b0     0xb10c obj/math.o
 .mdebug        0x000000000011b3bc     0x211c obj/mathsubs.o
 .mdebug        0x000000000011d4d8    0x1a644 obj/maxpath.o
 .mdebug        0x0000000000137b1c    0x11178 obj/mdrive.o
 .mdebug        0x0000000000148c94     0x56d4 obj/menu_data.o
 .mdebug        0x000000000014e368     0x6f40 obj/menus.o
 .mdebug        0x00000000001552a8     0xabdc obj/model.o
 .mdebug        0x000000000015fe84     0xb14c obj/money.o
 .mdebug        0x000000000016afd0     0xd1c4 obj/moobs.o
 .mdebug        0x0000000000178194     0xcd08 obj/pdu.o
 .mdebug        0x0000000000184e9c     0xbbbc obj/pots.o
 .mdebug        0x0000000000190a58     0xf4f8 obj/resurrect.o
 .mdebug        0x000000000019ff50    0x15998 obj/select.o
 .mdebug        0x00000000001b58e8     0xeb4c obj/sounds.o
 .mdebug        0x00000000001c4434     0xc140 obj/stats.o
 .mdebug        0x00000000001d0574    0x13dc0 obj/targets.o
 .mdebug        0x00000000001e4334     0xab6c obj/timint.o
 .mdebug        0x00000000001eeea0     0xe258 obj/tourney.o
 .mdebug        0x00000000001fd0f8    0x144ac obj/visuals.o
 .mdebug        0x00000000002115a4     0x86a8 obj/cars.o
 .mdebug        0x0000000000219c4c     0x4a70 obj/communic.o
 .mdebug        0x000000000021e6bc     0x4c84 obj/controls.o
 .mdebug        0x0000000000223340     0x1b20 obj/d3math.o
 .mdebug        0x0000000000224e60     0x5ca0 obj/drivetra.o
 .mdebug        0x000000000022ab00     0xb004 obj/drivsym.o
 .mdebug        0x0000000000235b04     0xb484 obj/initiali.o
 .mdebug        0x0000000000240f88     0xaf38 obj/reckon.o
 .mdebug        0x000000000024bec0     0x6d8c obj/road.o
 .mdebug        0x0000000000252c4c     0x8e44 obj/stree.o
 .mdebug        0x000000000025ba90     0x632c obj/tires.o
 .mdebug        0x0000000000261dbc     0x43b0 obj/unitvecs.o
 .mdebug        0x000000000026616c     0x19dc obj/vecmath.o
 .mdebug        0x0000000000267b48     0x70a0 obj/world.o
 .mdebug        0x000000000026ebe8    0x12e04 obj/anim.o
 .mdebug        0x00000000002819ec     0x1a3c obj/balloon.o
 .mdebug        0x0000000000283428     0x6218 obj/blit.o
 .mdebug        0x0000000000289640     0x5fc8 obj/error.o
 .mdebug        0x000000000028f608     0x79fc obj/fmath.o
 .mdebug        0x0000000000297004     0x57e0 obj/font.o
 .mdebug        0x000000000029c7e4      0x500 obj/hdrive.o
 .mdebug        0x000000000029cce4     0x261c obj/mem.o
 .mdebug        0x000000000029f300      0x500 obj/mole.o
 .mdebug        0x000000000029f800      0x504 obj/mole_info.o
 .mdebug        0x000000000029fd04     0x2bcc obj/timer.o
 .mdebug        0x00000000002a28d0     0x2b60 obj/strings.o
 .mdebug        0x00000000002a5430     0x7db8 /home/boffo/usr7/rush/game/MB/zmb.a(mb_poly.o)
 .mdebug        0x00000000002ad1e8     0x3ebc /home/boffo/usr7/rush/game/MB/zmb.a(mb_lights.o)
 .mdebug        0x00000000002b10a4     0x7ae8 /home/boffo/usr7/rush/game/MB/zmb.a(mb_main.o)
 .mdebug        0x00000000002b8b8c     0xaff0 /home/boffo/usr7/rush/game/MB/zmb.a(mb_objects.o)
 .mdebug        0x00000000002c3b7c     0x7274 /home/boffo/usr7/rush/game/MB/zmb.a(mb_tex.o)
 .mdebug        0x00000000002cadf0     0x6818 /home/boffo/usr7/rush/game/MB/zmb.a(mb_state.o)
 .mdebug        0x00000000002d1608     0x7d10 /home/boffo/usr7/rush/game/MB/zmb.a(mb_blit.o)
 .mdebug        0x00000000002d9318     0x3c84 /home/boffo/usr7/rush/game/MB/zmb.a(mb_struct.o)
 .mdebug        0x00000000002dcf9c     0x8384 /home/boffo/usr7/rush/game/MB/zmb.a(mb_model.o)
 .mdebug        0x00000000002e5320     0xae24 /home/boffo/usr7/rush/game/MB/zmb.a(mb_util.o)
 .mdebug        0x00000000002f0144     0x3740 /home/boffo/usr7/rush/game/MB/zmb.a(mb_camera.o)
 .mdebug        0x00000000002f3884     0x3964 /home/boffo/usr7/rush/game/MB/zmb.a(mb_math.o)
 .mdebug        0x00000000002f71e8     0x88ac /home/boffo/usr7/rush/game/MB/zmb.a(mb_simpleclip.o)
 .mdebug        0x00000000002ffa94     0xb1f8 /home/boffo/usr7/rush/game/MB/zmb.a(mb_simple.o)
 .mdebug        0x000000000030ac8c     0x6ee8 /home/boffo/usr7/rush/game/OS/libos.a(phx_shims.o)
 .mdebug        0x0000000000311b74    0x19268 /home/boffo/usr7/rush/game/OS/libos.a(idtc4000.o)
 .mdebug        0x000000000032addc     0x344c /home/boffo/usr7/rush/game/OS/libos.a(fexcp.o)
 .mdebug        0x000000000032e228    0x13838 /home/boffo/usr7/rush/game/OS/libos.a(memcpyrxk.o)
 .mdebug        0x0000000000341a60     0x31bc /home/boffo/usr7/rush/game/OS/libos.a(phx_time.o)
 .mdebug        0x0000000000344c1c     0x29d4 /home/boffo/usr7/rush/game/OS/libos.a(dispatch.o)
 .mdebug        0x00000000003475f0     0x4228 /home/boffo/usr7/rush/game/OS/libos.a(selftest.o)
 .mdebug        0x000000000034b818     0x2888 /home/boffo/usr7/rush/game/OS/libos.a(pm.o)
 .mdebug        0x000000000034e0a0     0x7ff4 /home/boffo/usr7/rush/game/OS/libos.a(eedrive.o)
 .mdebug        0x0000000000356094     0x1d10 /home/boffo/usr7/rush/game/OS/libos.a(cdec_hex.o)
 .mdebug        0x0000000000357da4      0x848 /home/boffo/usr7/rush/game/OS/libos.a(random.o)
 .mdebug        0x00000000003585ec     0x5018 /home/boffo/usr7/rush/game/OS/libos.a(stats.o)
 .mdebug        0x000000000035d604     0x6c64 /home/boffo/usr7/rush/game/OS/libos.a(mallocr.o)
 .mdebug        0x0000000000364268     0x567c /home/boffo/usr7/rush/game/OS/libos.a(audio.o)
 .mdebug        0x00000000003698e4     0x5760 /home/boffo/usr7/rush/game/OS/libos.a(phx_coin.o)
 .mdebug        0x000000000036f044     0x4b78 /home/boffo/usr7/rush/game/OS/libos.a(pots.o)
 .mdebug        0x0000000000373bbc     0x3f40 /home/boffo/usr7/rush/game/OS/libos.a(gamedefs.o)
 .mdebug        0x0000000000377afc     0x522c /home/boffo/usr7/rush/game/OS/libos.a(qio_rmt.o)
 .mdebug        0x000000000037cd28     0x96dc /home/boffo/usr7/rush/game/OS/libos.a(sst_vid.o)
 .mdebug        0x0000000000386404     0x6e24 /home/boffo/usr7/rush/game/OS/libos.a(sst_text.o)
 .mdebug        0x000000000038d228    0x13314 /home/boffo/usr7/rush/game/OS/libos.a(sst_an.o)
 .mdebug        0x00000000003a053c     0x5738 /home/boffo/usr7/rush/game/OS/libos.a(phx_stubs.o)
 .mdebug        0x00000000003a5c74     0x6514 /home/boffo/usr7/rush/game/OS/libos.a(ram_test.o)
 .mdebug        0x00000000003ac188     0x2e1c /home/boffo/usr7/rush/game/OS/libos.a(mem_test.o)
 .mdebug        0x00000000003aefa4     0x2c84 /home/boffo/usr7/rush/game/OS/libos.a(scope.o)
 .mdebug        0x00000000003b1c28     0x2328 /home/boffo/usr7/rush/game/OS/libos.a(entry.o)
 .mdebug        0x00000000003b3f50     0x3a18 /home/boffo/usr7/rush/game/OS/libos.a(menus.o)
 .mdebug        0x00000000003b7968     0x3d84 /home/boffo/usr7/rush/game/OS/libos.a(swt_test.o)
 .mdebug        0x00000000003bb6ec     0x5e38 /home/boffo/usr7/rush/game/OS/libos.a(snd_test.o)
 .mdebug        0x00000000003c1524     0xb444 /home/boffo/usr7/rush/game/OS/libos.a(qio.o)
 .mdebug        0x00000000003cc968    0x123a8 /home/boffo/usr7/rush/game/OS/libos.a(fsys.o)
 .mdebug        0x00000000003ded10     0x3e30 /home/boffo/usr7/rush/game/OS/libos.a(qio_errs.o)
 .mdebug        0x00000000003e2b40     0xf5d4 /home/boffo/usr7/rush/game/OS/libos.a(phx_ide.o)
 .mdebug        0x00000000003f2114     0x6b2c /home/boffo/usr7/rush/game/OS/libos.a(phx_hdshims.o)
 .mdebug        0x00000000003f8c40     0x5b84 /home/boffo/usr7/rush/game/OS/libos.a(net_test.o)
 .mdebug        0x00000000003fe7c4     0x1710 /home/boffo/usr7/rush/game/OS/libos.a(smc_putstr.o)
 .mdebug        0x00000000003ffed4     0x5e3c /home/boffo/usr7/rush/game/OS/libos.a(smc_main.o)
 .mdebug        0x0000000000405d10     0x5088 /home/boffo/usr7/rush/game/OS/libos.a(net_link.o)
 .mdebug        0x000000000040ad98     0x51d4 /home/boffo/usr7/rush/game/OS/libos.a(smc_tx.o)
 .mdebug        0x000000000040ff6c     0x44ac /home/boffo/usr7/rush/game/OS/libos.a(smc_intv.o)
 .mdebug        0x0000000000414418     0x58c0 /home/boffo/usr7/rush/game/OS/libos.a(smc_dma.o)
 .mdebug        0x0000000000419cd8     0x1d98 /home/boffo/usr7/rush/game/OS/libos.a(wms_ioasic.o)
 .mdebug        0x000000000041ba70     0x327c /home/boffo/usr7/rush/game/OS/libos.a(wms_gt64010.o)
 .mdebug        0x000000000041ecec     0x18d8 /home/boffo/usr7/rush/game/OS/libos.a(wms_pciio.o)
 .mdebug        0x00000000004205c4     0x2eb0 /home/boffo/usr7/rush/game/OS/libos.a(picfuncs.o)
 .mdebug        0x0000000000423474      0x52c /home/boffo/usr7/rush/game/OS/libos.a(sst_date.o)
 .mdebug        0x00000000004239a0     0x6b90 /home/boffo/usr7/rush/game/OS/libos.a(qio_uart.o)
 .mdebug        0x000000000042a530     0x23d4 /home/boffo/usr7/rush/game/OS/libos.a(phx_rtc.o)
 .mdebug        0x000000000042c904     0x3428 /home/boffo/usr7/rush/game/OS/libos.a(nsc_pcishim.o)
 .mdebug        0x000000000042fd2c     0x4c98 /home/boffo/usr7/rush/game/OS/libos.a(smc_rx.o)
 .mdebug        0x00000000004349c4     0x2e7c /usr/local/GUTS/3dfx/glide-rush2.7/libglide.a(gamma.o)
 .mdebug        0x0000000000437840     0x85b0 /usr/local/GUTS/3dfx/glide-rush2.7/libglide.a(gglide.o)
 .mdebug        0x000000000043fdf0     0x3adc /usr/local/GUTS/3dfx/glide-rush2.7/libglide.a(glfb.o)
 .mdebug        0x00000000004438cc     0x6e3c /usr/local/GUTS/3dfx/glide-rush2.7/libglide.a(gsst.o)
 .mdebug        0x000000000044a708     0x8420 /usr/local/GUTS/3dfx/glide-rush2.7/libglide.a(gtex.o)
 .mdebug        0x0000000000452b28     0x5df8 /usr/local/GUTS/3dfx/glide-rush2.7/libglide.a(gu.o)
 .mdebug        0x0000000000458920     0x4c40 /usr/local/GUTS/3dfx/glide-rush2.7/libglide.a(info.o)
 .mdebug        0x000000000045d560     0x4048 /usr/local/GUTS/3dfx/glide-rush2.7/libglide.a(misc.o)
 .mdebug        0x00000000004615a8     0x3e74 /usr/local/GUTS/3dfx/glide-rush2.7/libglide.a(sli.o)
 .mdebug        0x000000000046541c     0x4b88 /usr/local/GUTS/3dfx/glide-rush2.7/libglide.a(sst1init.o)
 .mdebug        0x0000000000469fa4      0x6ac /usr/local/GUTS/3dfx/glide-rush2.7/libglide.a(trifom.o)
 .mdebug        0x000000000046a650     0x3504 /usr/local/GUTS/3dfx/glide-rush2.7/libglide.a(util.o)
 .mdebug        0x000000000046db54     0x4f70 /usr/local/GUTS/3dfx/glide-rush2.7/libglide.a(video.o)
 .mdebug        0x0000000000472ac4     0x6a5c /usr/local/GUTS/3dfx/glide-rush2.7/libglide.a(dac.o)
 .mdebug        0x0000000000479520     0x4c40 /usr/local/GUTS/3dfx/glide-rush2.7/libglide.a(gdraw.o)
 .mdebug        0x000000000047e160     0x3640 /usr/local/GUTS/3dfx/glide-rush2.7/libglide.a(gerror.o)
 .mdebug        0x00000000004817a0     0x3dcc /usr/local/GUTS/3dfx/glide-rush2.7/libglide.a(gxdraw.o)
 .mdebug        0x000000000048556c     0x1ff8 /usr/local/gnu/IRIX/mips-97q1/mipsel-elf/lib/libnsprintff.a(new_nvfprintf.o)
 .mdebug        0x0000000000487564      0xc6c /usr/local/gnu/IRIX/mips-97q1/mipsel-elf/lib/libnsprintff.a(nsprintf.o)
 .mdebug        0x00000000004881d0     0x1b8c /usr/local/gnu/IRIX/mips-97q1/mipsel-elf/lib/libmf.a(acos.o)
 .mdebug        0x0000000000489d5c     0x1008 /usr/local/gnu/IRIX/mips-97q1/mipsel-elf/lib/libmf.a(atan2f.o)
 .mdebug        0x000000000048ad64     0x13ac /usr/local/gnu/IRIX/mips-97q1/mipsel-elf/lib/libmf.a(atanf.o)
 .mdebug        0x000000000048c110     0x1418 /usr/local/gnu/IRIX/mips-97q1/mipsel-elf/lib/libmf.a(exp.o)
 .mdebug        0x000000000048d528     0x13f0 /usr/local/gnu/IRIX/mips-97q1/mipsel-elf/lib/libmf.a(expf.o)
 .mdebug        0x000000000048e918      0xffc /usr/local/gnu/IRIX/mips-97q1/mipsel-elf/lib/libmf.a(fabs.o)
 .mdebug        0x000000000048f914      0xf24 /usr/local/gnu/IRIX/mips-97q1/mipsel-elf/lib/libmf.a(infinity.o)
 .mdebug        0x0000000000490838     0x1454 /usr/local/gnu/IRIX/mips-97q1/mipsel-elf/lib/libmf.a(ldexp.o)
 .mdebug        0x0000000000491c8c     0x1108 /usr/local/gnu/IRIX/mips-97q1/mipsel-elf/lib/libmf.a(modf.o)
 .mdebug        0x0000000000492d94     0x10e0 /usr/local/gnu/IRIX/mips-97q1/mipsel-elf/lib/libmf.a(modff.o)
 .mdebug        0x0000000000493e74     0x1430 /usr/local/gnu/IRIX/mips-97q1/mipsel-elf/lib/libmf.a(pow.o)
 .mdebug        0x00000000004952a4     0x13f4 /usr/local/gnu/IRIX/mips-97q1/mipsel-elf/lib/libmf.a(powf.o)
 .mdebug        0x0000000000496698     0x14a8 /usr/local/gnu/IRIX/mips-97q1/mipsel-elf/lib/libmf.a(sincosf.o)
 .mdebug        0x0000000000497b40     0x1784 /usr/local/gnu/IRIX/mips-97q1/mipsel-elf/lib/libmf.a(sqrt.o)
 .mdebug        0x00000000004992c4     0x16bc /usr/local/gnu/IRIX/mips-97q1/mipsel-elf/lib/libmf.a(tanf.o)
 .mdebug        0x000000000049a980      0xfb0 /usr/local/gnu/IRIX/mips-97q1/mipsel-elf/lib/libmf.a(floor.o)
 .mdebug        0x000000000049b930     0x12ac /usr/local/gnu/IRIX/mips-97q1/mipsel-elf/lib/libmf.a(fmodf.o)
 .mdebug        0x000000000049cbdc     0x16b4 /usr/local/gnu/IRIX/mips-97q1/mipsel-elf/lib/libmf.a(frexp.o)
 .mdebug        0x000000000049e290     0x17ac /usr/local/gnu/IRIX/mips-97q1/mipsel-elf/lib/libmf.a(log.o)
 .mdebug        0x000000000049fa3c      0xc14 /usr/local/gnu/IRIX/mips-97q1/mipsel-elf/lib/libcf.a(abs.o)
 .mdebug        0x00000000004a0650      0xcf0 /usr/local/gnu/IRIX/mips-97q1/mipsel-elf/lib/libcf.a(atoi.o)
 .mdebug        0x00000000004a1340      0xe44 /usr/local/gnu/IRIX/mips-97q1/mipsel-elf/lib/libcf.a(bsearch.o)
 .mdebug        0x00000000004a2184      0xd34 /usr/local/gnu/IRIX/mips-97q1/mipsel-elf/lib/libcf.a(callocr.o)
 .mdebug        0x00000000004a2eb8      0x55c /usr/local/gnu/IRIX/mips-97q1/mipsel-elf/lib/libcf.a(ctype_.o)
 .mdebug        0x00000000004a3414     0x1b78 /usr/local/gnu/IRIX/mips-97q1/mipsel-elf/lib/libcf.a(cvt.o)
 .mdebug        0x00000000004a4f8c     0x275c /usr/local/gnu/IRIX/mips-97q1/mipsel-elf/lib/libcf.a(ecvtbuf.o)
 .mdebug        0x00000000004a76e8      0xc10 /usr/local/gnu/IRIX/mips-97q1/mipsel-elf/lib/libcf.a(errno.o)
 .mdebug        0x00000000004a82f8     0x1210 /usr/local/gnu/IRIX/mips-97q1/mipsel-elf/lib/libcf.a(fopen.o)
 .mdebug        0x00000000004a9508     0x1adc /usr/local/gnu/IRIX/mips-97q1/mipsel-elf/lib/libcf.a(fseek.o)
 .mdebug        0x00000000004aafe4      0xee0 /usr/local/gnu/IRIX/mips-97q1/mipsel-elf/lib/libcf.a(fstatr.o)
 .mdebug        0x00000000004abec4     0x1048 /usr/local/gnu/IRIX/mips-97q1/mipsel-elf/lib/libcf.a(fwrite.o)
 .mdebug        0x00000000004acf0c     0x13c8 /usr/local/gnu/IRIX/mips-97q1/mipsel-elf/lib/libcf.a(makebuf.o)
 .mdebug        0x00000000004ae2d4      0x6cc /usr/local/gnu/IRIX/mips-97q1/mipsel-elf/lib/libcf.a(memcmp.o)
 .mdebug        0x00000000004ae9a0      0x778 /usr/local/gnu/IRIX/mips-97q1/mipsel-elf/lib/libcf.a(memmove.o)
 .mdebug        0x00000000004af118     0x40d0 /usr/local/gnu/IRIX/mips-97q1/mipsel-elf/lib/libcf.a(mprec.o)
 .mdebug        0x00000000004b31e8      0xdfc /usr/local/gnu/IRIX/mips-97q1/mipsel-elf/lib/libcf.a(printf.o)
 .mdebug        0x00000000004b3fe4      0xf00 /usr/local/gnu/IRIX/mips-97q1/mipsel-elf/lib/libcf.a(puts.o)
 .mdebug        0x00000000004b4ee4     0x1610 /usr/local/gnu/IRIX/mips-97q1/mipsel-elf/lib/libcf.a(qsort.o)
 .mdebug        0x00000000004b64f4     0x12b4 /usr/local/gnu/IRIX/mips-97q1/mipsel-elf/lib/libcf.a(refill.o)
 .mdebug        0x00000000004b77a8     0x170c /usr/local/gnu/IRIX/mips-97q1/mipsel-elf/lib/libcf.a(stdio.o)
 .mdebug        0x00000000004b8eb4      0x6a8 /usr/local/gnu/IRIX/mips-97q1/mipsel-elf/lib/libcf.a(strcat.o)
 .mdebug        0x00000000004b955c      0x6b4 /usr/local/gnu/IRIX/mips-97q1/mipsel-elf/lib/libcf.a(strchr.o)
 .mdebug        0x00000000004b9c10      0x66c /usr/local/gnu/IRIX/mips-97q1/mipsel-elf/lib/libcf.a(strcmp.o)
 .mdebug        0x00000000004ba27c      0x684 /usr/local/gnu/IRIX/mips-97q1/mipsel-elf/lib/libcf.a(strcpy.o)
 .mdebug        0x00000000004ba900      0x694 /usr/local/gnu/IRIX/mips-97q1/mipsel-elf/lib/libcf.a(strlen.o)
 .mdebug        0x00000000004baf94      0x6dc /usr/local/gnu/IRIX/mips-97q1/mipsel-elf/lib/libcf.a(strncat.o)
 .mdebug        0x00000000004bb670      0x694 /usr/local/gnu/IRIX/mips-97q1/mipsel-elf/lib/libcf.a(strncmp.o)
 .mdebug        0x00000000004bbd04      0x734 /usr/local/gnu/IRIX/mips-97q1/mipsel-elf/lib/libcf.a(strncpy.o)
 .mdebug        0x00000000004bc438      0x730 /usr/local/gnu/IRIX/mips-97q1/mipsel-elf/lib/libcf.a(strstr.o)
 .mdebug        0x00000000004bcb68     0x1064 /usr/local/gnu/IRIX/mips-97q1/mipsel-elf/lib/libcf.a(strtol.o)
 .mdebug        0x00000000004bdbcc     0x1304 /usr/local/gnu/IRIX/mips-97q1/mipsel-elf/lib/libcf.a(strtoul.o)
 .mdebug        0x00000000004beed0     0x219c /usr/local/gnu/IRIX/mips-97q1/mipsel-elf/lib/libcf.a(vfprintf.o)
 .mdebug        0x00000000004c106c     0x11c0 /usr/local/gnu/IRIX/mips-97q1/mipsel-elf/lib/libcf.a(dtoa.o)
 .mdebug        0x00000000004c222c     0x1010 /usr/local/gnu/IRIX/mips-97q1/mipsel-elf/lib/libcf.a(fflush.o)
 .mdebug        0x00000000004c323c     0x1570 /usr/local/gnu/IRIX/mips-97q1/mipsel-elf/lib/libcf.a(filer.o)
 .mdebug        0x00000000004c47ac     0x18e4 /usr/local/gnu/IRIX/mips-97q1/mipsel-elf/lib/libcf.a(findfp.o)
 .mdebug        0x00000000004c6090     0x12a0 /usr/local/gnu/IRIX/mips-97q1/mipsel-elf/lib/libcf.a(flags.o)
 .mdebug        0x00000000004c7330      0xc1c /usr/local/gnu/IRIX/mips-97q1/mipsel-elf/lib/libcf.a(fputc.o)
 .mdebug        0x00000000004c7f4c      0xd88 /usr/local/gnu/IRIX/mips-97q1/mipsel-elf/lib/libcf.a(fputs.o)
 .mdebug        0x00000000004c8cd4     0x1678 /usr/local/gnu/IRIX/mips-97q1/mipsel-elf/lib/libcf.a(fvwrite.o)
 .mdebug        0x00000000004ca34c      0xff0 /usr/local/gnu/IRIX/mips-97q1/mipsel-elf/lib/libcf.a(fwalk.o)
 .mdebug        0x00000000004cb33c      0x6c8 /usr/local/gnu/IRIX/mips-97q1/mipsel-elf/lib/libcf.a(memchr.o)
 .mdebug        0x00000000004cba04     0x10d0 /usr/local/gnu/IRIX/mips-97q1/mipsel-elf/lib/libcf.a(wbuf.o)
 .mdebug        0x00000000004ccad4     0x1088 /usr/local/gnu/IRIX/mips-97q1/mipsel-elf/lib/libcf.a(wsetup.o)
 .mdebug        0x00000000004cdb5c     0x3b94 /usr/local/gnu/IRIX/mips-97q1/mipsel-elf/lib/libcf.a(ddtoa.o)
 .mdebug        0x00000000004d16f0     0x1c54 /usr/local/gnu/IRIX/mips-97q1/mipsel-elf/lib/libgcc.a(_divdi3.o)
 .mdebug        0x00000000004d3344     0x1c54 /usr/local/gnu/IRIX/mips-97q1/mipsel-elf/lib/libgcc.a(_moddi3.o)
 .mdebug        0x00000000004d4f98     0x19a4 /usr/local/gnu/IRIX/mips-97q1/mipsel-elf/lib/libgcc.a(_udivdi3.o)
 .mdebug        0x00000000004d693c     0x1a10 /usr/local/gnu/IRIX/mips-97q1/mipsel-elf/lib/libgcc.a(_umoddi3.o)
                0x00000000800e8c10                gp_pointer=(_gp+0x0)
                0x00000000000e0c10                ramrom_size=(text_end-text_start)
                0x00000000807ffffc                INIT_SP=0x807ffffc
LOAD /home/boffo/usr7/rush/game/OS/phx_root.o
LOAD obj/root.o
LOAD obj/gameblk.o
LOAD obj/attract.o
LOAD obj/camera.o
LOAD obj/carsnd.o
LOAD obj/checkpoint.o
LOAD obj/cksum.o
LOAD obj/collision.o
LOAD obj/cpinit.o
LOAD obj/debug.o
LOAD obj/dis.o
LOAD obj/dnl.o
LOAD obj/drones.o
LOAD obj/fswheel.o
LOAD obj/game.o
LOAD obj/gamenet.o
LOAD obj/globals.o
LOAD obj/hiscore.o
LOAD obj/hud.o
LOAD obj/init.o
LOAD obj/math.o
LOAD obj/mathsubs.o
LOAD obj/maxpath.o
LOAD obj/mdrive.o
LOAD obj/menu_data.o
LOAD obj/menus.o
LOAD obj/model.o
LOAD obj/money.o
LOAD obj/moobs.o
LOAD obj/pdu.o
LOAD obj/pots.o
LOAD obj/resurrect.o
LOAD obj/select.o
LOAD obj/sounds.o
LOAD obj/stats.o
LOAD obj/targets.o
LOAD obj/timint.o
LOAD obj/tourney.o
LOAD obj/visuals.o
LOAD obj/cars.o
LOAD obj/communic.o
LOAD obj/controls.o
LOAD obj/d3math.o
LOAD obj/drivetra.o
LOAD obj/drivsym.o
LOAD obj/initiali.o
LOAD obj/reckon.o
LOAD obj/road.o
LOAD obj/stree.o
LOAD obj/tires.o
LOAD obj/unitvecs.o
LOAD obj/vecmath.o
LOAD obj/world.o
LOAD obj/anim.o
LOAD obj/balloon.o
LOAD obj/blit.o
LOAD obj/error.o
LOAD obj/fmath.o
LOAD obj/font.o
LOAD obj/hdrive.o
LOAD obj/mem.o
LOAD obj/mole.o
LOAD obj/mole_info.o
LOAD obj/timer.o
LOAD obj/strings.o
LOAD /home/boffo/usr7/rush/game/MB/zmb.a
LOAD /home/boffo/usr7/rush/game/OS/libos.a
LOAD /usr/local/GUTS/3dfx/glide-rush2.7/libglide.a
LOAD /usr/local/gnu/IRIX/mips-97q1/mipsel-elf/lib/libnsprintff.a
LOAD /usr/local/gnu/IRIX/mips-97q1/mipsel-elf/lib/libmf.a
LOAD /usr/local/gnu/IRIX/mips-97q1/mipsel-elf/lib/libcf.a
LOAD /usr/local/gnu/IRIX/mips-97q1/mipsel-elf/lib/libgcc.a
OUTPUT(game.elf elf32-littlemips)
